
bomb:     file format elf32-i386

Contents of section .interp:
 8048154 2f6c6962 2f6c642d 6c696e75 782e736f  /lib/ld-linux.so
 8048164 2e3200                               .2.             
Contents of section .note.ABI-tag:
 8048168 04000000 10000000 01000000 474e5500  ............GNU.
 8048178 00000000 02000000 06000000 20000000  ............ ...
Contents of section .note.gnu.build-id:
 8048188 04000000 14000000 03000000 474e5500  ............GNU.
 8048198 7fe871ca de58b57c bfd27436 0ab57890  ..q..X.|..t6..x.
 80481a8 46681ca8                             Fh..            
Contents of section .gnu.hash:
 80481ac 03000000 1c000000 01000000 05000000  ................
 80481bc 802b0222 1c000000 1d000000 00000000  .+."............
 80481cc 291d8c1c 38f28b1c ac4be3c0 67556110  )...8....K..gUa.
Contents of section .dynsym:
 80481dc 00000000 00000000 00000000 00000000  ................
 80481ec a0000000 00000000 00000000 12000000  ................
 80481fc 21000000 00000000 00000000 12000000  !...............
 804820c 89000000 00000000 00000000 12000000  ................
 804821c 5f000000 00000000 00000000 12000000  _...............
 804822c fe000000 00000000 00000000 12000000  ................
 804823c e4000000 00000000 00000000 12000000  ................
 804824c 6b000000 00000000 00000000 12000000  k...............
 804825c 28000000 00000000 00000000 12000000  (...............
 804826c d6000000 00000000 00000000 12000000  ................
 804827c 66000000 00000000 00000000 12000000  f...............
 804828c ba000000 00000000 00000000 12000000  ................
 804829c 2a010000 00000000 00000000 20000000  *........... ...
 80482ac 3c000000 00000000 00000000 12000000  <...............
 80482bc 12010000 00000000 00000000 12000000  ................
 80482cc 24010000 00000000 00000000 12000000  $...............
 80482dc 47000000 00000000 00000000 12000000  G...............
 80482ec 41000000 00000000 00000000 12000000  A...............
 80482fc 8f000000 00000000 00000000 12000000  ................
 804830c 2f000000 00000000 00000000 12000000  /...............
 804831c 1a000000 00000000 00000000 12000000  ................
 804832c a5000000 00000000 00000000 12000000  ................
 804833c ea000000 00000000 00000000 12000000  ................
 804834c 82000000 00000000 00000000 12000000  ................
 804835c 57000000 00000000 00000000 12000000  W...............
 804836c f8000000 00000000 00000000 12000000  ................
 804837c c8000000 00000000 00000000 12000000  ................
 804838c 04010000 00000000 00000000 12000000  ................
 804839c b3000000 c4c30408 04000000 11001a00  ................
 80483ac dd000000 a0c30408 04000000 11001a00  ................
 80483bc 0b000000 a49f0408 04000000 11001000  ................
 80483cc 7c000000 c0c30408 04000000 11001a00  |...............
Contents of section .dynstr:
 80483dc 006c6962 632e736f 2e36005f 494f5f73  .libc.so.6._IO_s
 80483ec 7464696e 5f757365 6400736f 636b6574  tdin_used.socket
 80483fc 0066666c 75736800 73747263 7079005f  .fflush.strcpy._
 804840c 5f707269 6e74665f 63686b00 65786974  _printf_chk.exit
 804841c 00666f70 656e005f 5f69736f 6339395f  .fopen.__isoc99_
 804842c 73736361 6e660063 6f6e6e65 63740073  sscanf.connect.s
 804843c 69676e61 6c007075 7473005f 5f737461  ignal.puts.__sta
 804844c 636b5f63 686b5f66 61696c00 73746469  ck_chk_fail.stdi
 804845c 6e007374 72746f6c 00666765 7473005f  n.strtol.fgets._
 804846c 5f657272 6e6f5f6c 6f636174 696f6e00  _errno_location.
 804847c 72656164 005f5f66 7072696e 74665f63  read.__fprintf_c
 804848c 686b0073 74646f75 74005f5f 6d656d6d  hk.stdout.__memm
 804849c 6f76655f 63686b00 5f5f6374 7970655f  ove_chk.__ctype_
 80484ac 625f6c6f 63006765 74656e76 00737464  b_loc.getenv.std
 80484bc 65727200 616c6172 6d006765 74686f73  err.alarm.gethos
 80484cc 7462796e 616d6500 636c6f73 6500736c  tbyname.close.sl
 80484dc 65657000 5f5f7370 72696e74 665f6368  eep.__sprintf_ch
 80484ec 6b005f5f 6c696263 5f737461 72745f6d  k.__libc_start_m
 80484fc 61696e00 77726974 65005f5f 676d6f6e  ain.write.__gmon
 804850c 5f737461 72745f5f 00474c49 42435f32  _start__.GLIBC_2
 804851c 2e330047 4c494243 5f322e31 00474c49  .3.GLIBC_2.1.GLI
 804852c 42435f32 2e370047 4c494243 5f322e33  BC_2.7.GLIBC_2.3
 804853c 2e340047 4c494243 5f322e34 00474c49  .4.GLIBC_2.4.GLI
 804854c 42435f32 2e3000                      BC_2.0.         
Contents of section .gnu.version:
 8048554 00000200 02000200 02000200 02000300  ................
 8048564 02000200 02000400 00000200 02000200  ................
 8048574 05000600 02000400 02000400 02000200  ................
 8048584 02000200 07000400 02000200 01000200  ................
Contents of section .gnu.version_r:
 8048594 01000600 01000000 10000000 00000000  ................
 80485a4 1369690d 00000700 39010000 10000000  .ii.....9.......
 80485b4 1169690d 00000600 43010000 10000000  .ii.....C.......
 80485c4 1769690d 00000500 4d010000 10000000  .ii.....M.......
 80485d4 74196909 00000400 57010000 10000000  t.i.....W.......
 80485e4 1469690d 00000300 63010000 10000000  .ii.....c.......
 80485f4 1069690d 00000200 6d010000 00000000  .ii.....m.......
Contents of section .rel.dyn:
 8048604 fcbf0408 060c0000 a0c30408 051d0000  ................
 8048614 c0c30408 051f0000 c4c30408 051c0000  ................
Contents of section .rel.plt:
 8048624 0cc00408 07010000 10c00408 07020000  ................
 8048634 14c00408 07030000 18c00408 07040000  ................
 8048644 1cc00408 07050000 20c00408 07060000  ........ .......
 8048654 24c00408 07070000 28c00408 07080000  $.......(.......
 8048664 2cc00408 07090000 30c00408 070a0000  ,.......0.......
 8048674 34c00408 070b0000 38c00408 070d0000  4.......8.......
 8048684 3cc00408 070e0000 40c00408 070f0000  <.......@.......
 8048694 44c00408 07100000 48c00408 07110000  D.......H.......
 80486a4 4cc00408 07120000 50c00408 07130000  L.......P.......
 80486b4 54c00408 07140000 58c00408 07150000  T.......X.......
 80486c4 5cc00408 07160000 60c00408 07170000  \.......`.......
 80486d4 64c00408 07180000 68c00408 07190000  d.......h.......
 80486e4 6cc00408 071a0000 70c00408 071b0000  l.......p.......
Contents of section .init:
 80486f4 5383ec08 e8130200 0081c303 3900008b  S...........9...
 8048704 83fcffff ff85c074 05e8be01 000083c4  .......t........
 8048714 085bc3                               .[.             
Contents of section .plt:
 8048720 ff3504c0 0408ff25 08c00408 00000000  .5.....%........
 8048730 ff250cc0 04086800 000000e9 e0ffffff  .%....h.........
 8048740 ff2510c0 04086808 000000e9 d0ffffff  .%....h.........
 8048750 ff2514c0 04086810 000000e9 c0ffffff  .%....h.........
 8048760 ff2518c0 04086818 000000e9 b0ffffff  .%....h.........
 8048770 ff251cc0 04086820 000000e9 a0ffffff  .%....h ........
 8048780 ff2520c0 04086828 000000e9 90ffffff  .% ...h(........
 8048790 ff2524c0 04086830 000000e9 80ffffff  .%$...h0........
 80487a0 ff2528c0 04086838 000000e9 70ffffff  .%(...h8....p...
 80487b0 ff252cc0 04086840 000000e9 60ffffff  .%,...h@....`...
 80487c0 ff2530c0 04086848 000000e9 50ffffff  .%0...hH....P...
 80487d0 ff2534c0 04086850 000000e9 40ffffff  .%4...hP....@...
 80487e0 ff2538c0 04086858 000000e9 30ffffff  .%8...hX....0...
 80487f0 ff253cc0 04086860 000000e9 20ffffff  .%<...h`.... ...
 8048800 ff2540c0 04086868 000000e9 10ffffff  .%@...hh........
 8048810 ff2544c0 04086870 000000e9 00ffffff  .%D...hp........
 8048820 ff2548c0 04086878 000000e9 f0feffff  .%H...hx........
 8048830 ff254cc0 04086880 000000e9 e0feffff  .%L...h.........
 8048840 ff2550c0 04086888 000000e9 d0feffff  .%P...h.........
 8048850 ff2554c0 04086890 000000e9 c0feffff  .%T...h.........
 8048860 ff2558c0 04086898 000000e9 b0feffff  .%X...h.........
 8048870 ff255cc0 040868a0 000000e9 a0feffff  .%\...h.........
 8048880 ff2560c0 040868a8 000000e9 90feffff  .%`...h.........
 8048890 ff2564c0 040868b0 000000e9 80feffff  .%d...h.........
 80488a0 ff2568c0 040868b8 000000e9 70feffff  .%h...h.....p...
 80488b0 ff256cc0 040868c0 000000e9 60feffff  .%l...h.....`...
 80488c0 ff2570c0 040868c8 000000e9 50feffff  .%p...h.....P...
Contents of section .plt.got:
 80488d0 ff25fcbf 04086690                    .%....f.        
Contents of section .text:
 80488e0 31ed5e89 e183e4f0 50545268 709f0408  1.^.....PTRhp...
 80488f0 68109f04 08515668 db890408 e8effeff  h....QVh........
 8048900 fff46690 66906690 66906690 66906690  ..f.f.f.f.f.f.f.
 8048910 8b1c24c3 66906690 66906690 66906690  ..$.f.f.f.f.f.f.
 8048920 b8a3c304 082da0c3 040883f8 06761ab8  .....-.......v..
 8048930 00000000 85c07411 5589e583 ec1468a0  ......t.U.....h.
 8048940 c30408ff d083c410 c9f3c390 8d742600  .............t&.
 8048950 b8a0c304 082da0c3 0408c1f8 0289c2c1  .....-..........
 8048960 ea1f01d0 d1f8741b ba000000 0085d274  ......t........t
 8048970 125589e5 83ec1050 68a0c304 08ffd283  .U.....Ph.......
 8048980 c410c9f3 c38d7426 008dbc27 00000000  ......t&...'....
 8048990 803dc8c3 04080075 135589e5 83ec08e8  .=.....u.U......
 80489a0 7cffffff c605c8c3 040801c9 f3c36690  |.............f.
 80489b0 b810bf04 088b1085 d27505eb 938d7600  .........u....v.
 80489c0 ba000000 0085d274 f25589e5 83ec1450  .......t.U.....P
 80489d0 ffd283c4 10c9e975 ffffff8d 4c240483  .......u....L$..
 80489e0 e4f0ff71 fc5589e5 53518b01 8b590483  ...q.U..SQ...Y..
 80489f0 f8010f84 01010000 83f8020f 85240100  .............$..
 8048a00 0083ec08 68a89f04 08ff7304 e80ffeff  ....h.....s.....
 8048a10 ffa3d0c3 040883c4 1085c00f 84e70000  ................
 8048a20 00e80b07 000083ec 0c682ca0 0408e88d  .........h,.....
 8048a30 fdffffc7 042468a0 0408e881 fdffffe8  .....$h.........
 8048a40 dd070000 890424e8 f6000000 e8cf0800  ......$.........
 8048a50 00c70424 94a00408 e863fdff ffe8bf07  ...$.....c......
 8048a60 00008904 24e8fb00 0000e8b1 080000c7  ....$...........
 8048a70 0424e19f 0408e845 fdffffe8 a1070000  .$.....E........
 8048a80 890424e8 4c010000 e8930800 00c70424  ..$.L..........$
 8048a90 ff9f0408 e827fdff ffe88307 00008904  .....'..........
 8048aa0 24e8ed02 0000e875 080000c7 0424c0a0  $......u.....$..
 8048ab0 0408e809 fdffffe8 65070000 890424e8  ........e.....$.
 8048ac0 48030000 e8570800 00c70424 0ea00408  H....W.....$....
 8048ad0 e8ebfcff ffe84707 00008904 24e8b903  ......G.....$...
 8048ae0 0000e839 08000083 c410b800 0000008d  ...9............
 8048af0 65f8595b 5d8d61fc c3a1c0c3 0408a3d0  e.Y[].a.........
 8048b00 c30408e9 19ffffff ff7304ff 3368aa9f  .........s..3h..
 8048b10 04086a01 e827fdff ffc70424 08000000  ..j..'.....$....
 8048b20 e8bbfcff ff83ec04 ff3368c7 9f04086a  .........3h....j
 8048b30 01e80afd ffffc704 24080000 00e89efc  ........$.......
 8048b40 ffff83ec 1468e4a0 0408ff74 241ce879  .....h.....t$..y
 8048b50 05000083 c41085c0 750483c4 0cc3e85e  ........u......^
 8048b60 060000eb f5565383 ec2c65a1 14000000  .....VS..,e.....
 8048b70 89442424 31c08d44 240c50ff 74243ce8  .D$$1..D$.P.t$<.
 8048b80 62060000 83c41083 7c240400 7507837c  b.......|$..u..|
 8048b90 24080174 05e82706 00008d5c 24048d74  $..t..'....\$..t
 8048ba0 2414eb07 83c30439 f374118b 43040303  $......9.t..C...
 8048bb0 39430874 efe80706 0000ebe8 8b44241c  9C.t.........D$.
 8048bc0 65330514 00000075 0683c424 5b5ec3e8  e3.....u...$[^..
 8048bd0 bcfbffff 83ec2865 a1140000 00894424  ......(e......D$
 8048be0 1831c08d 44241450 8d442413 508d4424  .1..D$.P.D$.P.D$
 8048bf0 1850683e a10408ff 74243ce8 10fcffff  .Ph>....t$<.....
 8048c00 83c42083 f8027e16 837c2404 070f87f6  .. ...~..|$.....
 8048c10 0000008b 442404ff 248560a1 0408e89e  ....D$..$.`.....
 8048c20 050000eb e3b86b00 0000837c 2408650f  ......k....|$.e.
 8048c30 84de0000 00e88705 0000b86b 000000e9  ...........k....
 8048c40 cf000000 b8680000 00817c24 08340200  .....h....|$.4..
 8048c50 000f84bc 000000e8 65050000 b8680000  ........e....h..
 8048c60 00e9ad00 0000b868 00000083 7c24084f  .......h....|$.O
 8048c70 0f849d00 0000e846 050000b8 68000000  .......F....h...
 8048c80 e98e0000 00b86d00 0000817c 2408b902  ......m....|$...
 8048c90 0000747f e8280500 00b86d00 0000eb73  ..t..(....m....s
 8048ca0 b8790000 00817c24 08fe0000 007464e8  .y....|$.....td.
 8048cb0 0d050000 b8790000 00eb58b8 65000000  .....y....X.e...
 8048cc0 817c2408 56010000 7449e8f2 040000b8  .|$.V...tI......
 8048cd0 65000000 eb3db867 00000081 7c240894  e....=.g....|$..
 8048ce0 00000074 2ee8d704 0000b867 000000eb  ...t.......g....
 8048cf0 22b87200 0000837c 24085774 16e8bf04  ".r....|$.Wt....
 8048d00 0000b872 000000eb 0ae8b304 0000b876  ...r...........v
 8048d10 0000003a 44240374 05e8a304 00008b44  ...:D$.t.......D
 8048d20 240c6533 05140000 00750483 c41cc3e8  $.e3.....u......
 8048d30 5cfaffff 565383ec 048b4c24 108b4424  \...VS....L$..D$
 8048d40 148b5c24 1889de29 c689f2c1 ea1f01f2  ..\$...)........
 8048d50 d1fa01c2 39ca7f0f b8000000 0039ca7c  ....9........9.|
 8048d60 1b83c404 5b5ec383 ec0483ea 01525051  ....[^.......RPQ
 8048d70 e8bfffff ff83c410 01c0ebe5 83ec0453  ...............S
 8048d80 83c20152 51e8aaff ffff83c4 108d4400  ...RQ.........D.
 8048d90 01ebce83 ec1c65a1 14000000 8944240c  ......e......D$.
 8048da0 31c08d44 2408508d 44240850 68cfa204  1..D$.P.D$.Ph...
 8048db0 08ff7424 2ce856fa ffff83c4 1083f802  ..t$,.V.........
 8048dc0 7433e8fa 03000083 ec046a0e 6a00ff74  t3........j.j..t
 8048dd0 2410e85d ffffff83 c41083f8 07741fe8  $..].........t..
 8048de0 dd030000 8b44240c 65330514 00000075  .....D$.e3.....u
 8048df0 1683c41c c3837c24 040e76cb ebc4837c  ......|$..v....|
 8048e00 24080775 daebdde8 84f9ffff 83ec1c65  $..u...........e
 8048e10 a1140000 00894424 0c31c08d 44240850  ......D$.1..D$.P
 8048e20 8d442408 5068cfa2 0408ff74 242ce8dd  .D$.Ph.....t$,..
 8048e30 f9ffff83 c41083f8 017e548b 44240483  .........~T.D$..
 8048e40 e00f8944 240483f8 0f742eb9 00000000  ...D$....t......
 8048e50 ba000000 0083c201 8b048580 a1040801  ................
 8048e60 c183f80f 75efc744 24040f00 000083fa  ....u..D$.......
 8048e70 0f75063b 4c240874 05e84303 00008b44  .u.;L$.t..C....D
 8048e80 240c6533 05140000 00750b83 c41cc3e8  $.e3.....u......
 8048e90 2d030000 eba5e8f5 f8ffff56 5383ec4c  -..........VS..L
 8048ea0 65a11400 00008944 244431c0 8d442414  e......D$D1..D$.
 8048eb0 50ff7424 5ce82c03 000083c4 10be0000  P.t$\.,.........
 8048ec0 0000eb1c 83c60183 fe06742e 89f38b44  ..........t....D
 8048ed0 9c0c3944 b408741b 83c30183 fb057eee  ..9D..t.......~.
 8048ee0 8b44b40c 83e80183 f80576d8 e8d00200  .D........v.....
 8048ef0 00ebd1e8 c9020000 ebdebb00 00000089  ................
 8048f00 de8b4c9c 0cb80100 0000ba3c c1040883  ..L........<....
 8048f10 f9017e0a 8b520883 c00139c8 75f68954  ..~..R....9.u..T
 8048f20 b42483c3 0183fb06 75d58b5c 242489d9  .$......u..\$$..
 8048f30 b8010000 008b5484 24895108 83c00189  ......T.$.Q.....
 8048f40 d183f806 75efc742 08000000 00be0500  ....u..B........
 8048f50 0000eb08 8b5b0883 ee017410 8b43088b  .....[....t..C..
 8048f60 0039037d efe85702 0000ebe8 8b44243c  .9.}..W......D$<
 8048f70 65330514 00000075 0683c444 5b5ec3e8  e3.....u...D[^..
 8048f80 0cf8ffff 5383ec08 8b542410 8b4c2414  ....S....T$..L$.
 8048f90 85d2743a 8b1a39cb 7f21b800 00000039  ..t:..9..!.....9
 8048fa0 cb741383 ec0851ff 7208e8d5 ffffff83  .t....Q.r.......
 8048fb0 c4108d44 000183c4 085bc383 ec0851ff  ...D.....[....Q.
 8048fc0 7204e8bd ffffff83 c41001c0 ebe8b8ff  r...............
 8048fd0 ffffffeb e15383ec 08e84302 000083ec  .....S....C.....
 8048fe0 046a0a6a 0050e895 f8ffff89 c38d40ff  .j.j.P........@.
 8048ff0 83c4103d e8030000 772c83ec 08536888  ...=....w,...Sh.
 8049000 c00408e8 7cffffff 83c41085 c0751e83  ....|........u..
 8049010 ec0c6818 a10408e8 a4f7ffff e8ff0200  ..h.............
 8049020 0083c418 5bc3e896 010000eb cde88f01  ....[...........
 8049030 0000ebdb 83ec1868 c0a10408 e87ff7ff  .......h........
 8049040 ffc70424 03000000 e823f7ff ff83c408  ...$.....#......
 8049050 6882a204 086a01e8 e4f7ffff 83c404ff  h....j..........
 8049060 35c4c304 08e8d6f6 ffffc704 24010000  5...........$...
 8049070 00e8faf6 ffffc704 248aa204 08e83ef7  ........$.....>.
 8049080 ffffc704 24100000 00e852f7 ffff83ec  ....$.....R.....
 8049090 10ff7424 146892a2 04086a01 e89ff7ff  ..t$.h....j.....
 80490a0 ffc70424 08000000 e833f7ff ff8b5424  ...$.....3....T$
 80490b0 04803a00 7410b800 00000083 c001803c  ..:.t..........<
 80490c0 020075f7 f3c3b800 000000c3 5756538b  ..u.........WVS.
 80490d0 5c24108b 74241453 e8d0ffff ff89c789  \$..t$.S........
 80490e0 3424e8c6 ffffff83 c404ba01 00000039  4$.............9
 80490f0 c7740689 d05b5e5f c30fb603 84c07423  .t...[^_......t#
 8049100 3a067526 83c30183 c6010fb6 0384c074  :.u&...........t
 8049110 0b3a0674 efba0100 0000ebd7 ba000000  .:.t............
 8049120 00ebd0ba 00000000 ebc9ba01 000000eb  ................
 8049130 c283ec14 68349004 086a02e8 20f6ffff  ....h4...j.. ...
 8049140 83c41cc3 f3c35653 83ec048b 7424100f  ......VS....t$..
 8049150 b61e84db 741be855 f7ffff83 c6010fbe  ....t..U........
 8049160 db8b00f6 44580120 75e5b800 000000eb  ....DX. u.......
 8049170 05b80100 000083c4 045b5ec3 5383ec08  .........[^.S...
 8049180 83ec04ff 35d0c304 086a50a1 ccc30408  ....5....jP.....
 8049190 8d0480c1 e00405e0 c3040850 e8aff5ff  ...........P....
 80491a0 ff89c383 c41085c0 741083ec 0c50e893  ........t....P..
 80491b0 ffffff83 c41085c0 75c689d8 83c4085b  ........u......[
 80491c0 c383ec18 68a3a204 08e8f2f5 ffffc704  ....h...........
 80491d0 24aca204 08e8e6f5 ffffc704 24080000  $...........$...
 80491e0 00e8faf5 ffff83ec 0c8b4424 148d5014  ..........D$..P.
 80491f0 528d5010 528d500c 528d5008 528d5004  R.P.R.P.R.P.R.P.
 8049200 525068c3 a20408ff 74242ce8 00f6ffff  RPh.....t$,.....
 8049210 83c42083 f8057e04 83c40cc3 e8a0ffff  .. ...~.........
 8049220 ff575653 e853ffff ff85c074 4b8b15cc  .WVS.S.....tK...
 8049230 c304088d 1c92c1e3 0481c3e0 c30408b8  ................
 8049240 00000000 b9ffffff ff89dff2 aef7d183  ................
 8049250 e90183f9 4e0f8f8d 0000008d 0492c1e0  ....N...........
 8049260 04c68401 dfc30408 0083c201 8915ccc3  ................
 8049270 040889d8 5b5e5fc3 a1c0c304 083905d0  ....[^_......9..
 8049280 c3040874 4083ec0c 68f3a204 08e81ef5  ...t@...h.......
 8049290 ffff83c4 1085c075 45a1c0c3 0408a3d0  .......uE.......
 80492a0 c30408e8 d4feffff 85c07581 83ec0c68  ..........u....h
 80492b0 d5a20408 e807f5ff ffc70424 00000000  ...........$....
 80492c0 e81bf5ff ff83ec0c 68d5a204 08e8eef4  ........h.......
 80492d0 ffffc704 24080000 00e802f5 ffff83ec  ....$...........
 80492e0 0c6a00e8 f8f4ffff 83ec0c68 fea20408  .j.........h....
 80492f0 e8cbf4ff ffa1ccc3 04088d50 018915cc  ...........P....
 8049300 c304086b c05005e0 c30408ba 19a30408  ...k.P..........
 8049310 b9040000 0089c789 d6f3a5e8 a1feffff  ................
 8049320 83ec6c65 a1140000 00894424 5c31c083  ..le......D$\1..
 8049330 3dccc304 08067411 8b44245c 65330514  =.....t..D$\e3..
 8049340 00000075 7b83c46c c383ec0c 8d442418  ...u{..l.....D$.
 8049350 508d4424 18508d44 24185068 29a30408  P.D$.P.D$.Ph)...
 8049360 68d0c404 08e8a6f4 ffff83c4 2083f803  h........... ...
 8049370 741283ec 0c6858a2 0408e841 f4ffff83  t....hX....A....
 8049380 c410ebb4 83ec0868 32a30408 8d442418  .......h2....D$.
 8049390 50e836fd ffff83c4 1085c075 d583ec0c  P.6........u....
 80493a0 68f8a104 08e816f4 ffffc704 2420a204  h...........$ ..
 80493b0 08e80af4 ffffe81a fcffff83 c410ebb2  ................
 80493c0 e8cbf3ff ff83ec0c 6a006888 a304086a  ........j.h....j
 80493d0 01ff35a0 c30408e8 84f4ffff c7042401  ..5...........$.
 80493e0 000000e8 f8f3ffff 55575653 83ec1c83  ........UWVS....
 80493f0 f9017679 89d789c3 894c240c bd010000  ..vy.....L$.....
 8049400 008d700c eb0ae825 f4ffff83 38047566  ..p....%....8.uf
 8049410 8b430485 c07f2383 ec046800 20000056  .C....#...h. ..V
 8049420 ff33e809 f3ffff89 430483c4 1085c078  .3......C......x
 8049430 d585c074 48897308 ebd68b4b 080fb611  ...tH.s....K....
 8049440 83c10189 4b0883e8 01894304 83c70188  ....K.....C.....
 8049450 57ff80fa 0a740983 c5013b6c 240c75b0  W....t....;l$.u.
 8049460 c6070089 e883c41c 5b5e5f5d c389d7bd  ........[^_]....
 8049470 01000000 ebeab8ff ffffffeb 05b80000  ................
 8049480 000085c0 750c83fd 0175d5bd 00000000  ....u....u......
 8049490 ebd1bdff ffffffeb ca555756 5381ec60  .........UWVS..`
 80494a0 a000008b 9c2474a0 00008b84 247ca000  .....$t.....$|..
 80494b0 00894424 0c8b8424 80a00000 89442410  ..D$...$.....D$.
 80494c0 8b842484 a0000089 4424148b b42488a0  ..$.....D$...$..
 80494d0 00008b84 248ca000 00894424 1865a114  ....$.....D$.e..
 80494e0 00000089 842450a0 000031c0 c7442430  .....$P...1..D$0
 80494f0 00000000 6a006a01 6a02e851 f3ffff83  ....j.j.j..Q....
 8049500 c41085c0 0f880401 000089c5 83ec0c53  ...............S
 8049510 e85bf3ff ff83c410 85c00f84 40010000  .[..........@...
 8049520 8d5c2430 c7442430 00000000 c7442434  .\$0.D$0.....D$4
 8049530 00000000 c7442438 00000000 c744243c  .....D$8.....D$<
 8049540 00000000 66c74424 3002006a 0cff700c  ....f.D$0..j..p.
 8049550 8b4010ff 308d4424 4050e871 f2ffff0f  .@..0.D$@P.q....
 8049560 b7842484 a0000066 c1c80866 89442442  ..$....f...f.D$B
 8049570 83c40c6a 105355e8 14f3ffff 83c41085  ...j.SU.........
 8049580 c00f8849 010000ba ffffffff b8000000  ...I............
 8049590 0089d189 f7f2ae89 cbf7d389 d18b7c24  ..............|$
 80495a0 08f2ae89 4c241889 d18b7c24 0cf2ae89  ....L$....|$....
 80495b0 cff7d789 7c241c89 d18b7c24 10f2ae8b  ....|$....|$....
 80495c0 54241c2b 54241829 ca8d445b fd8d4402  T$.+T$.)..D[..D.
 80495d0 7b3d0020 00000f87 56010000 8d94244c  {=. ....V.....$L
 80495e0 400000b9 00080000 b8000000 0089d7f3  @...............
 80495f0 abb9ffff ffff89f7 f2aef7d1 89cb83eb  ................
 8049600 010f8407 06000089 d7e9b001 00008b44  ...............D
 8049610 2414c700 4572726f c7400472 3a2043c7  $...Erro.@.r: C.
 8049620 40086c69 656ec740 0c742075 6ec74010  @.lien.@.t un.@.
 8049630 61626c65 c7401420 746f20c7 40186372  able.@. to .@.cr
 8049640 6561c740 1c746520 73c74020 6f636b65  ea.@.te s.@ ocke
 8049650 66c74024 7400b8ff ffffffe9 d0040000  f.@$t...........
 8049660 8b442414 c7004572 726fc740 04723a20  .D$...Erro.@.r: 
 8049670 44c74008 4e532069 c7400c73 20756ec7  D.@.NS i.@.s un.
 8049680 40106162 6c65c740 1420746f 20c74018  @.able.@. to .@.
 8049690 7265736f c7401c6c 766520c7 40207365  reso.@.lve .@ se
 80496a0 7276c740 24657220 61c74028 64647265  rv.@$er a.@(ddre
 80496b0 66c7402c 7373c640 2e0083ec 0c55e8dd  f.@,ss.@.....U..
 80496c0 f1ffff83 c410b8ff ffffffe9 60040000  ............`...
 80496d0 8b442414 c7004572 726fc740 04723a20  .D$...Erro.@.r: 
 80496e0 55c74008 6e61626c c7400c65 20746fc7  U.@.nabl.@.e to.
 80496f0 40102063 6f6ec740 146e6563 74c74018  @. con.@.nect.@.
 8049700 20746f20 c7401c74 686520c7 40207365   to .@.the .@ se
 8049710 727666c7 40246572 c6402600 83ec0c55  rvf.@$er.@&....U
 8049720 e87bf1ff ff83c410 b8ffffff ffe9fe03  .{..............
 8049730 00008b44 2414c700 4572726f c7400472  ...D$...Erro.@.r
 8049740 3a2052c7 40086573 756cc740 0c742073  : R.@.esul.@.t s
 8049750 74c74010 72696e67 c7401420 746f6fc7  t.@.ring.@. too.
 8049760 4018206c 6172c740 1c67652e 20c74020  @. lar.@.ge. .@ 
 8049770 496e6372 c7402465 617365c7 40282053  Incr.@$ease.@( S
 8049780 5542c740 2c4d4954 52c74030 5f4d4158  UB.@,MITR.@0_MAX
 8049790 c7403442 55460083 ec0c55e8 00f1ffff  .@4BUF....U.....
 80497a0 83c410b8 ffffffff e9830300 0088178d  ................
 80497b0 7f0183c6 0183eb01 0f845004 00000fb6  ..........P.....
 80497c0 168d4ad6 b8010000 0080f90f 770db8d9  ..J.........w...
 80497d0 ff0000d3 e883f001 83e00180 fa5f74cd  ............._t.
 80497e0 84c074c9 89d083e0 df83e841 3c1976bd  ..t........A<.v.
 80497f0 80fa2074 588d42e0 3c5f7609 80fa090f  .. tX.B.<_v.....
 8049800 85c50300 0083ec0c 0fb6d252 6894a404  ...........Rh...
 8049810 086a086a 018d8424 68800000 50e89ef0  .j.j...$h...P...
 8049820 ffff0fb6 84246c80 00008807 0fb68424  .....$l........$
 8049830 6d800000 8847010f b684246e 80000088  m....G....$n....
 8049840 470283c4 208d7f03 e965ffff ffc6072b  G... ....e.....+
 8049850 8d7f01e9 5affffff 01c629c3 742483ec  ....Z.....).t$..
 8049860 04535655 e897efff ff83c410 85c07fe8  .SVU............
 8049870 e8bbefff ff833804 0f85b000 000089f8  ......8.........
 8049880 ebd6837c 2408000f 88a10000 00896c24  ...|$.........l$
 8049890 40c74424 44000000 008d4424 4c894424  @.D$D.....D$L.D$
 80498a0 48b90020 00008d94 244c2000 008d4424  H.. ....$L ...D$
 80498b0 40e832fb ffff85c0 0f8ed600 000083ec  @.2.............
 80498c0 0c8d8424 58800000 508d4424 3c508d84  ...$X...P.D$<P..
 80498d0 24606000 0050689b a404088d 84246820  $``..Ph......$h 
 80498e0 000050e8 28efffff 8b44244c 83c4203d  ..P.(....D$L.. =
 80498f0 c8000000 0f84a601 000083ec 088d9424  ...............$
 8049900 54800000 525068ac a304086a ff6a01ff  T...RPh....j.j..
 8049910 742430e8 a8efffff 83c41455 e87fefff  t$0........U....
 8049920 ff83c410 b8ffffff ffe90202 00008b44  ...............D
 8049930 2414c700 4572726f c7400472 3a2043c7  $...Erro.@.r: C.
 8049940 40086c69 656ec740 0c742075 6ec74010  @.lien.@.t un.@.
 8049950 61626c65 c7401420 746f20c7 40187772  able.@. to .@.wr
 8049960 6974c740 1c652074 6fc74020 20746865  it.@.e to.@  the
 8049970 c7402420 736572c7 40287665 720083ec  .@$ ser.@(ver...
 8049980 0c55e819 efffff83 c410b8ff ffffffe9  .U..............
 8049990 9c010000 8b442414 c7004572 726fc740  .....D$...Erro.@
 80499a0 04723a20 43c74008 6c69656e c7400c74  .r: C.@.lien.@.t
 80499b0 20756ec7 40106162 6c65c740 1420746f   un.@.able.@. to
 80499c0 20c74018 72656164 c7401c20 666972c7   .@.read.@. fir.
 80499d0 40207374 2068c740 24656164 65c74028  @ st h.@$eade.@(
 80499e0 72206672 c7402c6f 6d2073c7 40306572  r fr.@,om s.@0er
 80499f0 766566c7 40347200 83ec0c55 e89feeff  vef.@4r....U....
 8049a00 ff83c410 b8ffffff ffe92201 00008b44  .........."....D
 8049a10 2414c700 4572726f c7400472 3a2043c7  $...Erro.@.r: C.
 8049a20 40086c69 656ec740 0c742075 6ec74010  @.lien.@.t un.@.
 8049a30 61626c65 c7401420 746f20c7 40187265  able.@. to .@.re
 8049a40 6164c740 1c206865 61c74020 64657273  ad.@. hea.@ ders
 8049a50 c7402420 66726fc7 40286d20 7365c740  .@$ fro.@(m se.@
 8049a60 2c727665 72c64030 0083ec0c 55e82eee  ,rver.@0....U...
 8049a70 ffff83c4 10b8ffff ffffe9b1 00000085  ................
 8049a80 c0744bb9 00200000 8d94244c 2000008d  .tK.. ....$L ...
 8049a90 442440e8 50f9ffff 85c00f8e 6effffff  D$@.P.......n...
 8049aa0 0fb69424 4c200000 b80d0000 0029d075  ...$L .......).u
 8049ab0 ce0fb694 244d2000 00b80a00 000029d0  ....$M .......).
 8049ac0 75bd0fb6 84244e20 0000f7d8 ebb1b900  u....$N ........
 8049ad0 2000008d 94244c20 00008d44 2440e805   ....$L ...D$@..
 8049ae0 f9ffff85 c07e6883 ec088d84 24542000  .....~h.....$T .
 8049af0 00508b7c 242057e8 a4ecffff 892c24e8  .P.|$ W......,$.
 8049b00 9cedffff 0fb617b8 4f000000 83c41029  ........O......)
 8049b10 d075130f b65701b8 4b000000 29d07506  .u...W..K...).u.
 8049b20 0fb64702 f7d885c0 0f95c00f b6c0f7d8  ..G.............
 8049b30 8bbc244c a0000065 333d1400 00000f85  ..$L...e3=......
 8049b40 2a010000 81c45ca0 00005b5e 5f5dc38b  *.....\...[^_]..
 8049b50 442414c7 00457272 6fc74004 723a2043  D$...Erro.@.r: C
 8049b60 c740086c 69656ec7 400c7420 756ec740  .@.lien.@.t un.@
 8049b70 1061626c 65c74014 20746f20 c7401872  .able.@. to .@.r
 8049b80 656164c7 401c2073 7461c740 20747573  ead.@. sta.@ tus
 8049b90 20c74024 6d657373 c7402861 676520c7   .@$mess.@(age .
 8049ba0 402c6672 6f6dc740 30207365 72c74034  @,from.@0 ser.@4
 8049bb0 76657200 83ec0c55 e8e3ecff ff83c410  ver....U........
 8049bc0 b8ffffff ffe966ff ffffa1dc a304088b  ......f.........
 8049bd0 5c241489 03a11ba4 04088943 3f8d7b04  \$.........C?.{.
 8049be0 83e7fc29 fb89d8be dca30408 29de83c0  ...)........)...
 8049bf0 43c1e802 89c1f3a5 83ec0c55 e89fecff  C..........U....
 8049c00 ff83c410 b8ffffff ffe922ff ffff8d84  ..........".....
 8049c10 244c4000 0050ff74 2414ff74 2414ff74  $L@..P.t$..t$..t
 8049c20 24146820 a4040868 00200000 6a018dbc  $.h ...h. ..j...
 8049c30 24682000 0057e885 ecffffb8 00000000  $h ..W..........
 8049c40 b9ffffff fff2aef7 d18d41ff 89442428  ..........A..D$(
 8049c50 83c42089 c38db424 4c200000 bf000000  .. ....$L ......
 8049c60 0085c00f 85f5fbff ffe91ffc ffffe81d  ................
 8049c70 ebffff53 83ec088b 5c241085 db742483  ...S....\$...t$.
 8049c80 ec0868c5 9304086a 0ee8d2ea ffff85db  ..h....j........
 8049c90 b8000000 000f48d8 891c24e8 e0eaffff  ......H...$.....
 8049ca0 83c41083 c4085bc3 57565383 ec288b74  ......[.WVS..(.t
 8049cb0 243865a1 14000000 89442424 31c06a01  $8e......D$$1.j.
 8049cc0 6a0de899 eaffff83 c4086a01 6a1de88d  j.........j.j...
 8049cd0 eaffff83 c4086a01 6a1de881 eaffff83  ......j.j.......
 8049ce0 c40c6a00 6a016a02 e863ebff ff83c410  ..j.j.j..c......
 8049cf0 85c00f88 a9000000 89c383ec 0c68aca4  .............h..
 8049d00 0408e869 ebffff83 c41085c0 0f84da00  ...i............
 8049d10 00008d7c 240cc744 240c0000 0000c744  ...|$..D$......D
 8049d20 24100000 0000c744 24140000 0000c744  $......D$......D
 8049d30 24180000 000066c7 44240c02 006a0cff  $.....f.D$...j..
 8049d40 700c8b40 10ff308d 44241c50 e87feaff  p..@..0.D$.P....
 8049d50 ff66c744 241e3b6e 83c40c6a 105753e8  .f.D$.;n...j.WS.
 8049d60 2cebffff 83c41085 c00f88e9 00000083  ,...............
 8049d70 ec0c53e8 28ebffff 66c7064f 4bc64602  ..S.(...f..OK.F.
 8049d80 0083c410 b8000000 008b5424 1c653315  ..........T$.e3.
 8049d90 14000000 0f85eb00 000083c4 205b5e5f  ............ [^_
 8049da0 c3c70645 72726fc7 4604723a 2043c746  ...Erro.F.r: C.F
 8049db0 086c6965 6ec7460c 7420756e c7461061  .lien.F.t un.F.a
 8049dc0 626c65c7 46142074 6f20c746 18637265  ble.F. to .F.cre
 8049dd0 61c7461c 74652073 c746206f 636b6566  a.F.te s.F ockef
 8049de0 c7462474 00b8ffff ffffeb9d c7064572  .F$t..........Er
 8049df0 726fc746 04723a20 44c74608 4e532069  ro.F.r: D.F.NS i
 8049e00 c7460c73 20756ec7 46106162 6c65c746  .F.s un.F.able.F
 8049e10 1420746f 20c74618 7265736f c7461c6c  . to .F.reso.F.l
 8049e20 766520c7 46207365 7276c746 24657220  ve .F serv.F$er 
 8049e30 61c74628 64647265 66c7462c 7373c646  a.F(ddref.F,ss.F
 8049e40 2e0083ec 0c53e855 eaffff83 c410b8ff  .....S.U........
 8049e50 ffffffe9 31ffffff 83ec0c68 aca40408  ....1......h....
 8049e60 686ca404 086aff6a 0156e851 eaffff83  hl...j.j.V.Q....
 8049e70 c41453e8 28eaffff 83c410b8 ffffffff  ..S.(...........
 8049e80 e904ffff ffe806e9 ffff5383 ec088b54  ..........S....T
 8049e90 24108b44 24188b5c 241c85c0 751785d2  $..D$..\$...u...
 8049ea0 7405803a 00753466 c7034f4b c6430200  t..:.u4f..OK.C..
 8049eb0 83c4085b c383ec04 ff742418 68baa404  ...[.....t$.h...
 8049ec0 086a01e8 78e9ffff 66c7034f 4bc64302  .j..x...f..OK.C.
 8049ed0 0083c410 b8000000 00ebd583 ec0453ff  ..............S.
 8049ee0 74241c68 d1a40408 5268d9a4 0408686e  t$.h....Rh....hn
 8049ef0 3b000068 aca40408 e89cf5ff ff83c420  ;..h........... 
 8049f00 ebae6690 66906690 66906690 66906690  ..f.f.f.f.f.f.f.
 8049f10 55575653 e8f7e9ff ff81c3e7 20000083  UWVS........ ...
 8049f20 ec0c8b6c 24208db3 0cffffff e8c3e7ff  ...l$ ..........
 8049f30 ff8d8308 ffffff29 c6c1fe02 85f67425  .......)......t%
 8049f40 31ff8db6 00000000 83ec04ff 74242cff  1...........t$,.
 8049f50 74242c55 ff94bb08 ffffff83 c70183c4  t$,U............
 8049f60 1039fe75 e383c40c 5b5e5f5d c38d7600  .9.u....[^_]..v.
 8049f70 f3c3                                 ..              
Contents of section .fini:
 8049f74 5383ec08 e893e9ff ff81c383 20000083  S........... ...
 8049f84 c4085bc3                             ..[.            
Contents of section .rodata:
 8049fa0 03000000 01000200 72002573 3a204572  ........r.%s: Er
 8049fb0 726f723a 20436f75 6c646e27 74206f70  ror: Couldn't op
 8049fc0 656e2025 730a0055 73616765 3a202573  en %s..Usage: %s
 8049fd0 205b3c69 6e707574 5f66696c 653e5d0a   [<input_file>].
 8049fe0 00546861 74277320 6e756d62 65722032  .That's number 2
 8049ff0 2e20204b 65657020 676f696e 67210048  .  Keep going!.H
 804a000 616c6677 61792074 68657265 2100476f  alfway there!.Go
 804a010 6f642077 6f726b21 20204f6e 20746f20  od work!  On to 
 804a020 74686520 6e657874 2e2e2e00 57656c63  the next....Welc
 804a030 6f6d6520 746f206d 79206669 656e6469  ome to my fiendi
 804a040 7368206c 6974746c 6520626f 6d622e20  sh little bomb. 
 804a050 596f7520 68617665 20362070 68617365  You have 6 phase
 804a060 73207769 74680000 77686963 6820746f  s with..which to
 804a070 20626c6f 7720796f 75727365 6c662075   blow yourself u
 804a080 702e2048 61766520 61206e69 63652064  p. Have a nice d
 804a090 61792100 50686173 65203120 64656675  ay!.Phase 1 defu
 804a0a0 7365642e 20486f77 2061626f 75742074  sed. How about t
 804a0b0 6865206e 65787420 6f6e653f 00000000  he next one?....
 804a0c0 536f2079 6f752067 6f742074 68617420  So you got that 
 804a0d0 6f6e652e 20205472 79207468 6973206f  one.  Try this o
 804a0e0 6e652e00 4920616d 20666f72 206d6564  ne..I am for med
 804a0f0 6963616c 206c6961 62696c69 74792061  ical liability a
 804a100 74207468 65206665 64657261 6c206c65  t the federal le
 804a110 76656c2e 00000000 576f7721 20596f75  vel.....Wow! You
 804a120 27766520 64656675 73656420 74686520  've defused the 
 804a130 73656372 65742073 74616765 21002564  secret stage!.%d
 804a140 20256320 25640000 00000000 00000000   %c %d..........
 804a150 00000000 00000000 00000000 00000000  ................
 804a160 258c0408 448c0408 668c0408 858c0408  %...D...f.......
 804a170 a08c0408 bb8c0408 d68c0408 f18c0408  ................
 804a180 0a000000 02000000 0e000000 07000000  ................
 804a190 08000000 0c000000 0f000000 0b000000  ................
 804a1a0 00000000 04000000 01000000 0d000000  ................
 804a1b0 03000000 09000000 06000000 05000000  ................
 804a1c0 536f2079 6f752074 68696e6b 20796f75  So you think you
 804a1d0 2063616e 2073746f 70207468 6520626f   can stop the bo
 804a1e0 6d622077 69746820 6374726c 2d632c20  mb with ctrl-c, 
 804a1f0 646f2079 6f753f00 43757273 65732c20  do you?.Curses, 
 804a200 796f7527 76652066 6f756e64 20746865  you've found the
 804a210 20736563 72657420 70686173 65210000   secret phase!..
 804a220 42757420 66696e64 696e6720 69742061  But finding it a
 804a230 6e642073 6f6c7669 6e672069 74206172  nd solving it ar
 804a240 65207175 69746520 64696666 6572656e  e quite differen
 804a250 742e2e2e 00000000 436f6e67 72617475  t.......Congratu
 804a260 6c617469 6f6e7321 20596f75 27766520  lations! You've 
 804a270 64656675 73656420 74686520 626f6d62  defused the bomb
 804a280 21005765 6c6c2e2e 2e004f4b 2e203a2d  !.Well....OK. :-
 804a290 2900496e 76616c69 64207068 61736525  ).Invalid phase%
 804a2a0 730a000a 424f4f4d 21212100 54686520  s...BOOM!!!.The 
 804a2b0 626f6d62 20686173 20626c6f 776e2075  bomb has blown u
 804a2c0 702e0025 64202564 20256420 25642025  p..%d %d %d %d %
 804a2d0 64202564 00457272 6f723a20 5072656d  d %d.Error: Prem
 804a2e0 61747572 6520454f 46206f6e 20737464  ature EOF on std
 804a2f0 696e0047 52414445 5f424f4d 42004572  in.GRADE_BOMB.Er
 804a300 726f723a 20496e70 7574206c 696e6520  ror: Input line 
 804a310 746f6f20 6c6f6e67 002a2a2a 7472756e  too long.***trun
 804a320 63617465 642a2a2a 00256420 25642025  cated***.%d %d %
 804a330 73004472 4576696c 00677265 61747768  s.DrEvil.greatwh
 804a340 6974652e 6963732e 63732e63 6d752e65  ite.ics.cs.cmu.e
 804a350 64750061 6e67656c 73686172 6b2e6963  du.angelshark.ic
 804a360 732e6373 2e636d75 2e656475 006d616b  s.cs.cmu.edu.mak
 804a370 6f736861 726b2e69 63732e63 732e636d  oshark.ics.cs.cm
 804a380 752e6564 75000000 50726f67 72616d20  u.edu...Program 
 804a390 74696d65 64206f75 74206166 74657220  timed out after 
 804a3a0 25642073 65636f6e 64730a00 4572726f  %d seconds..Erro
 804a3b0 723a2048 54545020 72657175 65737420  r: HTTP request 
 804a3c0 6661696c 65642077 69746820 6572726f  failed with erro
 804a3d0 72202564 3a202573 00000000 4572726f  r %d: %s....Erro
 804a3e0 723a2052 6573756c 74207374 72696e67  r: Result string
 804a3f0 20636f6e 7461696e 7320616e 20696c6c   contains an ill
 804a400 6567616c 206f7220 756e7072 696e7461  egal or unprinta
 804a410 626c6520 63686172 61637465 722e0000  ble character...
 804a420 47455420 2f25732f 7375626d 6974722e  GET /%s/submitr.
 804a430 706c2f3f 75736572 69643d25 73266c61  pl/?userid=%s&la
 804a440 623d2573 26726573 756c743d 25732673  b=%s&result=%s&s
 804a450 75626d69 743d7375 626d6974 20485454  ubmit=submit HTT
 804a460 502f312e 300d0a0d 0a000000 4572726f  P/1.0.......Erro
 804a470 723a2055 6e61626c 6520746f 20636f6e  r: Unable to con
 804a480 6e656374 20746f20 73657276 65722025  nect to server %
 804a490 73000000 25252530 32580025 73202564  s...%%%02X.%s %d
 804a4a0 20255b61 2d7a412d 7a205d00 3131342e   %[a-zA-z ].114.
 804a4b0 3231322e 38312e32 31000a41 55544f52  212.81.21..AUTOR
 804a4c0 4553554c 545f5354 52494e47 3d25730a  ESULT_STRING=%s.
 804a4d0 00626f6d 626c6162 00637361 707000    .bomblab.csapp. 
Contents of section .eh_frame_hdr:
 804a4e0 011b033b 08010000 20000000 40e2ffff  ...;.... ...@...
 804a4f0 24010000 f0e3ffff 48010000 fbe4ffff  $.......H.......
 804a500 5c010000 62e6ffff 94010000 85e6ffff  \...b...........
 804a510 b8010000 f4e6ffff f0010000 54e8ffff  ............T...
 804a520 20020000 b3e8ffff 6c020000 2ce9ffff   .......l...,...
 804a530 a4020000 bbe9ffff d0020000 a4eaffff  ................
 804a540 08030000 f5eaffff 44030000 54ebffff  ........D...T...
 804a550 8c030000 aeebffff b4030000 cdebffff  ................
 804a560 d4030000 ecebffff e8030000 51ecffff  ............Q...
 804a570 20040000 64ecffff 40040000 66ecffff   ...d...@...f...
 804a580 54040000 9cecffff 80040000 e1ecffff  T...............
 804a590 b8040000 06edffff d0040000 41edffff  ............A...
 804a5a0 08050000 40eeffff 64050000 e5eeffff  ....@...d.......
 804a5b0 bc050000 08efffff dc050000 b9efffff  ................
 804a5c0 2c060000 93f7ffff 14080000 c8f7ffff  ,...............
 804a5d0 40080000 aaf9ffff f0080000 30faffff  @...........0...
 804a5e0 40090000 90faffff 8c090000           @...........    
Contents of section .eh_frame:
 804a5ec 14000000 00000000 017a5200 017c0801  .........zR..|..
 804a5fc 1b0c0404 88010000 20000000 1c000000  ........ .......
 804a60c 14e1ffff b0010000 000e0846 0e0c4a0f  ...........F..J.
 804a61c 0b740478 003f1a3b 2a322422 10000000  .t.x.?.;*2$"....
 804a62c 40000000 a0e2ffff 08000000 00000000  @...............
 804a63c 34000000 54000000 97e3ffff 67010000  4...T.......g...
 804a64c 00440c01 00471005 02750044 0f037578  .D...G...u.D..ux
 804a65c 06100302 757c0309 010ac10c 010041c3  ....u|........A.
 804a66c 41c5430c 0404410b 20000000 8c000000  A.C...A. .......
 804a67c c6e4ffff 23000000 00430e18 450e1c44  ....#....C..E..D
 804a68c 0e20480e 10470a0e 04410b00 34000000  . H..G...A..4...
 804a69c b0000000 c5e4ffff 6f000000 00410e08  ........o....A..
 804a6ac 8602410e 0c830343 0e38510e 3c440e40  ..A....C.8Q.<D.@
 804a6bc 480e3002 450a0e0c 41c30e08 41c60e04  H.0.E...A...A...
 804a6cc 410b0000 2c000000 e8000000 fce4ffff  A...,...........
 804a6dc 60010000 00430e2c 510e3045 0e34450e  `....C.,Q.0E.4E.
 804a6ec 38450e3c 440e4048 0e20032b 010a0e04  8E.<D.@H. .+....
 804a6fc 410b0000 48000000 18010000 2ce6ffff  A...H.......,...
 804a70c 5f000000 00410e08 8602410e 0c830343  _....A....A....C
 804a71c 0e106b0a 0e0c41c3 0e0841c6 0e04410b  ..k...A...A...A.
 804a72c 430e1444 0e18410e 1c410e20 480e1047  C..D..A..A. H..G
 804a73c 0e14410e 18440e1c 410e2048 0e100000  ..A..D..A. H....
 804a74c 34000000 64010000 3fe6ffff 79000000  4...d...?...y...
 804a75c 00430e20 510e2445 0e28450e 2c440e30  .C. Q.$E.(E.,D.0
 804a76c 480e204d 0e24420e 28420e2c 440e3048  H. M.$B.(B.,D.0H
 804a77c 0e205a0a 0e04410b 28000000 9c010000  . Z...A.(.......
 804a78c 80e6ffff 8f000000 00430e20 510e2445  .........C. Q.$E
 804a79c 0e28450e 2c440e30 480e2002 580a0e04  .(E.,D.0H. .X...
 804a7ac 410b0000 34000000 c8010000 e3e6ffff  A...4...........
 804a7bc e9000000 00410e08 8602410e 0c830343  .....A....A....C
 804a7cc 0e58510e 5c440e60 480e5002 bf0a0e0c  .XQ.\D.`H.P.....
 804a7dc 41c30e08 41c60e04 410b0000 38000000  A...A...A...8...
 804a7ec 00020000 94e7ffff 51000000 00410e08  ........Q....A..
 804a7fc 8302430e 105e0e18 410e1c43 0e20480e  ..C..^..A..C. H.
 804a80c 10470a0e 0841c30e 04410b43 0e18410e  .G...A...A.C..A.
 804a81c 1c430e20 480e1000 44000000 3c020000  .C. H...D...<...
 804a82c a9e7ffff 5f000000 00410e08 8302430e  ...._....A....C.
 804a83c 10480e14 420e1842 0e1c410e 204d0e10  .H..B..B..A. M..
 804a84c 4a0e1841 0e1c450e 20480e10 470e1c45  J..A..E. H..G..E
 804a85c 0e204d0e 0841c30e 04410e10 83020000  . M..A...A......
 804a86c 24000000 84020000 c0e7ffff 5a000000  $...........Z...
 804a87c 00430e1c 450e2054 0e18450e 1c420e20  .C..E. T..E..B. 
 804a88c 480e1c46 0e200000 1c000000 ac020000  H..F. ..........
 804a89c f2e7ffff 1f000000 00430e14 440e1845  .........C..D..E
 804a8ac 0e1c420e 20000000 10000000 cc020000  ..B. ...........
 804a8bc f1e7ffff 1f000000 00000000 34000000  ............4...
 804a8cc e0020000 fce7ffff 65000000 00410e08  ........e....A..
 804a8dc 8702410e 0c860341 0e108304 490e1452  ..A....A....I..R
 804a8ec 0e104c0a c30e0c41 c60e0841 c70e0441  ..L....A...A...A
 804a8fc 0b000000 1c000000 18030000 29e8ffff  ............)...
 804a90c 13000000 00430e18 450e1c42 0e20480e  .....C..E..B. H.
 804a91c 04000000 10000000 38030000 1ce8ffff  ........8.......
 804a92c 02000000 00000000 28000000 4c030000  ........(...L...
 804a93c 0ae8ffff 36000000 00410e08 8602410e  ....6....A....A.
 804a94c 0c830343 0e106e0e 0c41c30e 0841c60e  ...C..n..A...A..
 804a95c 04000000 34000000 78030000 14e8ffff  ....4...x.......
 804a96c 45000000 00410e08 8302430e 10430e14  E....A....C..C..
 804a97c 460e1842 0e1c510e 204a0e10 470e1c41  F..B..Q. J..G..A
 804a98c 0e20480e 10490e08 41c30e04 14000000  . H..I..A.......
 804a99c b0030000 21e8ffff 25000000 00430e1c  ....!...%....C..
 804a9ac 450e2000 34000000 c8030000 2ee8ffff  E. .4...........
 804a9bc 3b000000 00430e10 480e1444 0e18440e  ;....C..H..D..D.
 804a9cc 1c440e20 440e2441 0e28450e 2c440e30  .D. D.$A.(E.,D.0
 804a9dc 480e1048 0a0e0441 0b000000 58000000  H..H...A....X...
 804a9ec 00040000 31e8ffff ff000000 00410e08  ....1........A..
 804a9fc 8702410e 0c860341 0e108304 02510ac3  ..A....A.....Q..
 804aa0c 0e0c41c6 0e0841c7 0e04410b 500a0e1c  ..A...A...A.P...
 804aa1c 450e2048 0e105a0e 1c450e20 510b430a  E. H..Z..E. Q.C.
 804aa2c 0e1c450e 20510b43 0a0e1c42 0e20450b  ..E. Q.C...B. E.
 804aa3c 430e1c45 0e200000 54000000 5c040000  C..E. ..T...\...
 804aa4c d4e8ffff a5000000 00430e70 650a0e04  .........C.pe...
 804aa5c 410b430e 7c450e80 01450e84 01450e88  A.C.|E...E...E..
 804aa6c 01450e8c 01450e90 01480e70 480e7c45  .E...E...H.pH.|E
 804aa7c 0e800148 0e70450e 78450e7c 450e8001  ...H.pE.xE.|E...
 804aa8c 480e7047 0e7c450e 8001590e 70000000  H.pG.|E...Y.p...
 804aa9c 1c000000 b4040000 21e9ffff 23000000  ........!...#...
 804aaac 00430e10 420e1445 0e18420e 1c460e20  .C..B..E..B..F. 
 804aabc 4c000000 d4040000 24e9ffff b1000000  L.......$.......
 804aacc 00410e08 8502410e 0c870341 0e108604  .A....A....A....
 804aadc 410e1483 05430e30 6b0e3445 0e38410e  A....C.0k.4E.8A.
 804aaec 3c420e40 4b0e307b 0a0e1441 c30e1041  <B.@K.0{...A...A
 804aafc c60e0c41 c70e0841 c50e0441 0b000000  ...A...A...A....
 804ab0c e4010000 24050000 85e9ffff da070000  ....$...........
 804ab1c 00410e08 8502410e 0c870341 0e108604  .A....A....A....
 804ab2c 410e1483 05460ef4 c0020253 0ef8c002  A....F.....S....
 804ab3c 420efcc0 02420e80 c102480e f0c0024d  B....B....H....M
 804ab4c 0efcc002 410e80c1 02480ef0 c002750e  ....A....H....u.
 804ab5c f4c00243 0ef8c002 450efcc0 02450e80  ...C....E....E..
 804ab6c c102590e f4c00242 0ef8c002 410efcc0  ..Y....B....A...
 804ab7c 02410e80 c102480e f0c00203 3e010efc  .A....H.....>...
 804ab8c c002410e 80c10248 0ef0c002 02590efc  ..A....H.....Y..
 804ab9c c002410e 80c10248 0ef0c002 02720efc  ..A....H.....r..
 804abac c002410e 80c10248 0ef0c002 02650efc  ..A....H.....e..
 804abbc c002440e 80c10245 0e84c102 420e88c1  ..D....E....B...
 804abcc 02420e8c c102480e 90c10268 0ef0c002  .B....H....h....
 804abdc 5c0ef4c0 02410ef8 c002410e fcc00241  \....A....A....A
 804abec 0e80c102 480ef0c0 0202550e fcc00248  ....H.....U....H
 804abfc 0e80c102 450e84c1 02480e88 c102450e  ....E....H....E.
 804ac0c 8cc10248 0e90c102 4c0ef0c0 024e0ef8  ...H....L....N..
 804ac1c c002480e fcc00241 0e80c102 450e84c1  ..H....A....E...
 804ac2c 02420e88 c102420e 8cc10244 0e90c102  .B....B....D....
 804ac3c 480efcc0 02410e80 c102480e f0c00202  H....A....H.....
 804ac4c 5d0efcc0 02410e80 c102480e f0c00202  ]....A....H.....
 804ac5c 710efcc0 02410e80 c102480e f0c00202  q....A....H.....
 804ac6c 680efcc0 02410e80 c102480e f0c00202  h....A....H.....
 804ac7c 750ef8c0 02480efc c002450e 80c10258  u....H....E....X
 804ac8c 0ef0c002 7b0a0e14 41c30e10 41c60e0c  ....{...A...A...
 804ac9c 41c70e08 41c50e04 410b0268 0efcc002  A...A...A..h....
 804acac 410e80c1 02480ef0 c0027b0e fcc00241  A....H....{....A
 804acbc 0e80c102 480ef0c0 02520ef4 c002440e  ....H....R....D.
 804accc f8c00244 0efcc002 440e80c1 02450e84  ...D....D....E..
 804acdc c102450e 88c10242 0e8cc102 480e90c1  ..E....B....H...
 804acec 025d0ef0 c0020000 28000000 0c070000  .]......(.......
 804acfc 77efffff 35000000 00410e08 8302430e  w...5....A....C.
 804ad0c 104b0e18 450e1c42 0e205a0e 10430e08  .K..E..B. Z..C..
 804ad1c 41c30e04 ac000000 38070000 80efffff  A.......8.......
 804ad2c e2010000 00410e08 8702410e 0c860341  .....A....A....A
 804ad3c 0e108304 430e3852 0e3c420e 40480e38  ....C.8R.<B.@H.8
 804ad4c 420e3c42 0e40480e 38420e3c 420e4048  B.<B.@H.8B.<B.@H
 804ad5c 0e34420e 38420e3c 420e4048 0e304d0e  .4B.8B.<B.@H.0M.
 804ad6c 3c450e40 480e3075 0e34430e 38450e3c  <E.@H.0u.4C.8E.<
 804ad7c 450e404f 0e34420e 38410e3c 410e4048  E.@O.4B.8A.<A.@H
 804ad8c 0e304b0e 3c410e40 510e3059 0a0e1041  .0K.<A.@Q.0Y...A
 804ad9c c30e0c41 c60e0841 c70e0441 0b02a40e  ...A...A...A....
 804adac 3c410e40 480e304d 0e3c450e 40450e44  <A.@H.0M.<E.@E.D
 804adbc 420e4842 0e4c410e 50480e3c 410e4048  B.HB.LA.PH.<A.@H
 804adcc 0e300000 4c000000 e8070000 b2f0ffff  .0..L...........
 804addc 78000000 00410e08 8302430e 10650a0e  x....A....C..e..
 804adec 0841c30e 04410b43 0e14440e 18450e1c  .A...A.C..D..E..
 804adfc 420e2051 0e104a0e 14410e18 440e1c45  B. Q..J..A..D..E
 804ae0c 0e20410e 24450e28 450e2c45 0e30480e  . A.$E.(E.,E.0H.
 804ae1c 10000000 48000000 38080000 e8f0ffff  ....H...8.......
 804ae2c 5d000000 00410e08 8502410e 0c870341  ]....A....A....A
 804ae3c 0e108604 410e1483 054e0e20 690e2444  ....A....N. i.$D
 804ae4c 0e28440e 2c410e30 4d0e2047 0e1441c3  .(D.,A.0M. G..A.
 804ae5c 0e1041c6 0e0c41c7 0e0841c5 0e040000  ..A...A...A.....
 804ae6c 10000000 84080000 fcf0ffff 02000000  ................
 804ae7c 00000000 00000000                    ........        
Contents of section .init_array:
 804bf08 b0890408                             ....            
Contents of section .fini_array:
 804bf0c 90890408                             ....            
Contents of section .jcr:
 804bf10 00000000                             ....            
Contents of section .dynamic:
 804bf14 01000000 01000000 0c000000 f4860408  ................
 804bf24 0d000000 749f0408 19000000 08bf0408  ....t...........
 804bf34 1b000000 04000000 1a000000 0cbf0408  ................
 804bf44 1c000000 04000000 f5feff6f ac810408  ...........o....
 804bf54 05000000 dc830408 06000000 dc810408  ................
 804bf64 0a000000 77010000 0b000000 10000000  ....w...........
 804bf74 15000000 00000000 03000000 00c00408  ................
 804bf84 02000000 d0000000 14000000 11000000  ................
 804bf94 17000000 24860408 11000000 04860408  ....$...........
 804bfa4 12000000 20000000 13000000 08000000  .... ...........
 804bfb4 feffff6f 94850408 ffffff6f 01000000  ...o.......o....
 804bfc4 f0ffff6f 54850408 00000000 00000000  ...oT...........
 804bfd4 00000000 00000000 00000000 00000000  ................
 804bfe4 00000000 00000000 00000000 00000000  ................
 804bff4 00000000 00000000                    ........        
Contents of section .got:
 804bffc 00000000                             ....            
Contents of section .got.plt:
 804c000 14bf0408 00000000 00000000 36870408  ............6...
 804c010 46870408 56870408 66870408 76870408  F...V...f...v...
 804c020 86870408 96870408 a6870408 b6870408  ................
 804c030 c6870408 d6870408 e6870408 f6870408  ................
 804c040 06880408 16880408 26880408 36880408  ........&...6...
 804c050 46880408 56880408 66880408 76880408  F...V...f...v...
 804c060 86880408 96880408 a6880408 b6880408  ................
 804c070 c6880408                             ....            
Contents of section .data:
 804c080 00000000 00000000 24000000 94c00408  ........$.......
 804c090 a0c00408 08000000 c4c00408 acc00408  ................
 804c0a0 32000000 b8c00408 d0c00408 16000000  2...............
 804c0b0 18c10408 00c10408 2d000000 dcc00408  ........-.......
 804c0c0 24c10408 06000000 e8c00408 0cc10408  $...............
 804c0d0 6b000000 f4c00408 30c10408 28000000  k.......0...(...
 804c0e0 00000000 00000000 01000000 00000000  ................
 804c0f0 00000000 63000000 00000000 00000000  ....c...........
 804c100 23000000 00000000 00000000 07000000  #...............
 804c110 00000000 00000000 14000000 00000000  ................
 804c120 00000000 2f000000 00000000 00000000  ..../...........
 804c130 e9030000 00000000 00000000 65000000  ............e...
 804c140 01000000 48c10408 09010000 02000000  ....H...........
 804c150 54c10408 ab030000 03000000 60c10408  T...........`...
 804c160 07030000 04000000 6cc10408 21010000  ........l...!...
 804c170 05000000 78c10408 33020000 06000000  ....x...3.......
 804c180 00000000 4a65040c 00000000 00000000  ....Je..........
 804c190 00000000 00000000 00000000 00000000  ................
 804c1a0 39a30408 53a30408 6da30408 00000000  9...S...m.......
 804c1b0 00000000 00000000 00000000 00000000  ................
 804c1c0 00000000 00000000 00000000 00000000  ................
 804c1d0 00000000 00000000 00000000 00000000  ................
 804c1e0 00000000 00000000 00000000 00000000  ................
 804c1f0 00000000 00000000 00000000 00000000  ................
 804c200 00000000 00000000 00000000 00000000  ................
 804c210 00000000 00000000 00000000 00000000  ................
 804c220 00000000 00000000 00000000 00000000  ................
 804c230 00000000 00000000 00000000 00000000  ................
 804c240 00000000 00000000 00000000 00000000  ................
 804c250 00000000 00000000 00000000 00000000  ................
 804c260 00000000 00000000 00000000 00000000  ................
 804c270 00000000 00000000 00000000 00000000  ................
 804c280 00000000 00000000 00000000 00000000  ................
 804c290 00000000 00000000 00000000 00000000  ................
 804c2a0 00000000 00000000 00000000 00000000  ................
 804c2b0 00000000 00000000 00000000 00000000  ................
 804c2c0 00000000 00000000 00000000 00000000  ................
 804c2d0 00000000 00000000 00000000 00000000  ................
 804c2e0 00000000 00000000 00000000 00000000  ................
 804c2f0 00000000 00000000 00000000 00000000  ................
 804c300 00000000 00000000 00000000 00000000  ................
 804c310 00000000 00000000 00000000 00000000  ................
 804c320 00000000 00000000 00000000 00000000  ................
 804c330 00000000 00000000 00000000 00000000  ................
 804c340 00000000 00000000 00000000 00000000  ................
 804c350 00000000 00000000 00000000 00000000  ................
 804c360 00000000 00000000 00000000 00000000  ................
 804c370 00000000 00000000 00000000 00000000  ................
 804c380 00000000 00000000 00000000 00000000  ................
 804c390 00000000 00000000 00000000 00000000  ................
Contents of section .comment:
 0000 4743433a 20285562 756e7475 20362e33  GCC: (Ubuntu 6.3
 0010 2e302d31 32756275 6e747532 2920362e  .0-12ubuntu2) 6.
 0020 332e3020 32303137 30343036 00        3.0 20170406.   
Contents of section .debug_aranges:
 0000 1c000000 02000000 00000400 00000000  ................
 0010 db890408 67010000 00000000 00000000  ....g...........
Contents of section .debug_info:
 0000 75070000 04000000 00000401 51000000  u...........Q...
 0010 0c8b0200 00ef0100 00db8904 08670100  .............g..
 0020 00000000 00022300 000003d8 30000000  ......#.....0...
 0030 030407b0 00000003 01084f02 00000302  ..........O.....
 0040 078c0100 00030407 ab000000 03010651  ...............Q
 0050 02000003 02055d02 00000404 05696e74  ......]......int
 0060 00030805 c7000000 030807a6 00000002  ................
 0070 17010000 04376100 00000207 00000004  .....7a.........
 0080 83850000 00030405 cc000000 029e0200  ................
 0090 0004846f 00000003 0407e601 00000504  ...o............
 00a0 0604a600 00000301 06580200 0007a600  .........X......
 00b0 0000022a 02000005 30bd0000 00082602  ...*....0.....&.
 00c0 00009406 f13a0200 0009f800 000006f2  .....:..........
 00d0 5a000000 00090f00 000006f7 a0000000  Z...............
 00e0 0409eb00 000006f8 a0000000 0809a802  ................
 00f0 000006f9 a0000000 0c094b03 000006fa  ..........K.....
 0100 a0000000 10096f01 000006fb a0000000  ......o.........
 0110 14090d02 000006fc a0000000 18094400  ..............D.
 0120 000006fd a0000000 1c09ff00 000006fe  ................
 0130 a0000000 200a9f01 00000600 01a00000  .... ...........
 0140 00240a31 03000006 0101a000 0000280a  .$.1..........(.
 0150 b6020000 060201a0 0000002c 0a460200  ...........,.F..
 0160 00060401 72020000 300a1c00 00000606  ....r...0.......
 0170 01780200 00340ae3 00000006 08015a00  .x...4........Z.
 0180 0000380a b3010000 060c015a 0000003c  ..8........Z...<
 0190 0a2d0100 00060e01 7a000000 400a0b01  .-......z...@...
 01a0 00000612 013e0000 00440a67 02000006  .....>...D.g....
 01b0 13014c00 0000460a 2a000000 0614017e  ..L...F.*......~
 01c0 02000047 0aad0100 00061801 8e020000  ...G............
 01d0 480a3101 00000621 018c0000 004c0ac9  H.1....!.....L..
 01e0 02000006 29019e00 0000540a d0020000  ....).....T.....
 01f0 062a019e 00000058 0ad70200 00062b01  .*.....X......+.
 0200 9e000000 5c0ade02 0000062c 019e0000  ....\......,....
 0210 00600ae5 02000006 2e012500 0000640a  .`........%...d.
 0220 bb010000 062f015a 00000068 0aec0200  ...../.Z...h....
 0230 00063101 94020000 6c000b1b 02000006  ..1.....l.......
 0240 96085001 00000c06 9c720200 00099802  ..P......r......
 0250 0000069d 72020000 00098601 0000069e  ....r...........
 0260 78020000 04093502 000006a2 5a000000  x.....5.....Z...
 0270 08000604 41020000 0604bd00 00000ca6  ....A...........
 0280 0000008e 0200000d 97000000 00000604  ................
 0290 3a020000 0ca60000 00a40200 000d9700  :...............
 02a0 00002700 0e610100 000fd701 0000063b  ..'..a.........;
 02b0 01a40200 000f7602 0000063c 01a40200  ......v....<....
 02c0 000f3400 0000063d 01a40200 000604ad  ..4....=........
 02d0 00000007 cd020000 10cd0200 00115b01  ..............[.
 02e0 000005aa 78020000 11d00100 0005ab78  ....x..........x
 02f0 02000011 f5020000 05ac7802 0000117d  ..........x....}
 0300 01000007 1a5a0000 000cd302 00001403  .....Z..........
 0310 00001200 07090300 00113a02 0000071b  ..........:.....
 0320 14030000 13390100 00012235 03000005  .....9...."5....
 0330 03d0c304 080604b2 00000014 46030000  ............F...
 0340 01245a00 0000db89 04086701 0000019c  .$Z.......g.....
 0350 9e050000 15410300 0001245a 00000000  .....A....$Z....
 0360 00000015 fc020000 01249e05 00004200  .........$....B.
 0370 00001692 02000001 26a00000 00620000  ........&....b..
 0380 0017a405 0000268a 04080d00 00000145  ......&........E
 0390 a7030000 18b40500 00ac0000 0019338a  ..............3.
 03a0 04080106 00000017 a4050000 338a0408  ............3...
 03b0 0c000000 0146cd03 000018b4 050000c4  .....F..........
 03c0 00000019 3f8a0408 01060000 0017a405  ....?...........
 03d0 0000518a 04080c00 0000014d f3030000  ..Q........M....
 03e0 18b40500 00dc0000 00195d8a 04080106  ..........].....
 03f0 00000017 a4050000 6f8a0408 0c000000  ........o.......
 0400 01541904 000018b4 050000f4 00000019  .T..............
 0410 7b8a0408 01060000 0017a405 00008d8a  {...............
 0420 04080c00 0000015b 3f040000 18b40500  .......[?.......
 0430 000c0100 0019998a 04080106 00000017  ................
 0440 a4050000 ab8a0408 0c000000 01616504  .............ae.
 0450 000018b4 05000024 01000019 b78a0408  .......$........
 0460 01060000 0017a405 0000c98a 04080c00  ................
 0470 00000167 8b040000 18b40500 003c0100  ...g.........<..
 0480 0019d58a 04080106 00000017 a4050000  ................
 0490 088b0408 11000000 0137b104 000018b4  .........7......
 04a0 05000054 01000019 198b0408 f2060000  ...T............
 04b0 0017a405 0000258b 04081100 0000013e  ......%........>
 04c0 d7040000 18b40500 006c0100 0019368b  .........l....6.
 04d0 0408f206 00000019 118a0408 fd060000  ................
 04e0 19268a04 08090700 0019448a 04081407  .&........D.....
 04f0 0000194c 8a04081f 07000019 518a0408  ...L........Q...
 0500 2a070000 19628a04 08140700 00196a8a  *....b........j.
 0510 04083507 0000196f 8a04082a 07000019  ..5....o...*....
 0520 808a0408 14070000 19888a04 08400700  .............@..
 0530 00198d8a 04082a07 0000199e 8a040814  ......*.........
 0540 07000019 a68a0408 4b070000 19ab8a04  ........K.......
 0550 082a0700 0019bc8a 04081407 000019c4  .*..............
 0560 8a040856 07000019 c98a0408 2a070000  ...V........*...
 0570 19da8a04 08140700 0019e28a 04086107  ..............a.
 0580 000019e7 8a04082a 07000019 258b0408  .......*....%...
 0590 6c070000 19428b04 086c0700 00000604  l....B...l......
 05a0 a0000000 1a000000 0002665a 00000003  ..........fZ....
 05b0 c1050000 1bc30200 000266d8 0200001c  ..........f.....
 05c0 001d3e9e 3c57656c 636f6d65 20746f20  ..>.<Welcome to 
 05d0 6d792066 69656e64 69736820 6c697474  my fiendish litt
 05e0 6c652062 6f6d622e 20596f75 20686176  le bomb. You hav
 05f0 65203620 70686173 65732077 6974680a  e 6 phases with.
 0600 001ecb01 0000c101 00000b00 cb010000  ................
 0610 1d2f9e2d 77686963 6820746f 20626c6f  ./.-which to blo
 0620 7720796f 75727365 6c662075 702e2048  w yourself up. H
 0630 61766520 61206e69 63652064 6179210a  ave a nice day!.
 0640 001d2c9e 2a506861 73652031 20646566  ..,.*Phase 1 def
 0650 75736564 2e20486f 77206162 6f757420  used. How about 
 0660 74686520 6e657874 206f6e65 3f0a001d  the next one?...
 0670 219e1f54 68617427 73206e75 6d626572  !..That's number
 0680 20322e20 204b6565 7020676f 696e6721   2.  Keep going!
 0690 0a001d12 9e104861 6c667761 79207468  ......Halfway th
 06a0 65726521 0a001d27 9e25536f 20796f75  ere!...'.%So you
 06b0 20676f74 20746861 74206f6e 652e2020   got that one.  
 06c0 54727920 74686973 206f6e65 2e0a001d  Try this one....
 06d0 219e1f47 6f6f6420 776f726b 2120204f  !..Good work!  O
 06e0 6e20746f 20746865 206e6578 742e2e2e  n to the next...
 06f0 0a001f20 01000020 01000002 57202f02  ... ... ....W /.
 0700 00002f02 00000512 011f4001 00004001  ../.......@...@.
 0710 00000809 1fbd0000 00bd0000 0008081f  ................
 0720 01030000 01030000 09041fd5 000000d5  ................
 0730 00000008 0c1f0903 00000903 00000905  ................
 0740 1f110300 00110300 0009061f 19030000  ................
 0750 19030000 09071f21 03000021 03000009  .......!...!....
 0760 081f2903 00002903 00000909 20860200  ..)...)..... ...
 0770 00860200 000af801 00                 .........       
Contents of section .debug_abbrev:
 0000 01110125 0e130b03 0e1b0e11 01120610  ...%............
 0010 17000002 1600030e 3a0b3b0b 49130000  ........:.;.I...
 0020 0324000b 0b3e0b03 0e000004 24000b0b  .$...>......$...
 0030 3e0b0308 0000050f 000b0b00 00060f00  >...............
 0040 0b0b4913 00000726 00491300 00081301  ..I....&.I......
 0050 030e0b0b 3a0b3b0b 01130000 090d0003  ....:.;.........
 0060 0e3a0b3b 0b491338 0b00000a 0d00030e  .:.;.I.8........
 0070 3a0b3b05 4913380b 00000b16 00030e3a  :.;.I.8........:
 0080 0b3b0b00 000c0101 49130113 00000d21  .;......I......!
 0090 0049132f 0b00000e 1300030e 3c190000  .I./........<...
 00a0 0f340003 0e3a0b3b 0549133f 193c1900  .4...:.;.I.?.<..
 00b0 00103700 49130000 11340003 0e3a0b3b  ..7.I....4...:.;
 00c0 0b49133f 193c1900 00122100 00001334  .I.?.<....!....4
 00d0 00030e3a 0b3b0b49 133f1902 18000014  ...:.;.I.?......
 00e0 2e013f19 030e3a0b 3b0b2719 49131101  ..?...:.;.'.I...
 00f0 12064018 97421901 13000015 0500030e  ..@..B..........
 0100 3a0b3b0b 49130217 00001634 00030e3a  :.;.I......4...:
 0110 0b3b0b49 13021700 00171d01 31131101  .;.I........1...
 0120 1206580b 590b0113 00001805 00311302  ..X.Y........1..
 0130 17000019 89820100 11013113 00001a2e  ..........1.....
 0140 013f1903 0e3a0b3b 0b271949 13200b34  .?...:.;.'.I. .4
 0150 19011300 001b0500 030e3a0b 3b0b4913  ..........:.;.I.
 0160 00001c18 0000001d 36000218 00001e2e  ........6.......
 0170 003f193c 196e0e03 0e3a0b3b 0b6e0e00  .?.<.n...:.;.n..
 0180 001f2e00 3f193c19 6e0e030e 3a0b3b0b  ....?.<.n...:.;.
 0190 0000202e 003f193c 196e0e03 0e3a0b3b  .. ..?.<.n...:.;
 01a0 05000000                             ....            
Contents of section .debug_line:
 0000 67010000 0200ee00 00000101 fb0e0d00  g...............
 0010 01010101 00000001 0000012f 7573722f  .........../usr/
 0020 696e636c 7564652f 69333836 2d6c696e  include/i386-lin
 0030 75782d67 6e752f62 69747300 2f757372  ux-gnu/bits./usr
 0040 2f6c6962 2f676363 2f693638 362d6c69  /lib/gcc/i686-li
 0050 6e75782d 676e752f 362f696e 636c7564  nux-gnu/6/includ
 0060 65002f75 73722f69 6e636c75 64650000  e./usr/include..
 0070 626f6d62 2e630000 00007374 64696f32  bomb.c....stdio2
 0080 2e680001 00007374 64646566 2e680002  .h....stddef.h..
 0090 00007479 7065732e 68000100 00737464  ..types.h....std
 00a0 696f2e68 00030000 6c696269 6f2e6800  io.h....libio.h.
 00b0 03000073 79735f65 72726c69 73742e68  ...sys_errlist.h
 00c0 00010000 73757070 6f72742e 68000000  ....support.h...
 00d0 00706861 7365732e 68000000 00737464  .phases.h....std
 00e0 6c69622e 68000300 003c6275 696c742d  lib.h....<built-
 00f0 696e3e00 00000000 000502db 89040803  in>.............
 0100 24010844 9891030d 08e40402 03255804  $..D.........%X.
 0110 01036108 82598304 02031d58 04010369  ..a..Y.....X...i
 0120 ba598304 02031558 04010370 ba598304  .Y.....X...p.Y..
 0130 02030e58 04010376 ba598304 02600401  ...X...v.Y...`..
 0140 b6598304 025a0401 bd598388 03bb7fe4  .Y...Z...Y......
 0150 0402033a e4040103 50081204 020330ba  ...:....P.....0.
 0160 04010357 0812020c 000101             ...W.......     
Contents of section .debug_str:
 0000 7072696e 7466005f 5f6f6666 5f74005f  printf.__off_t._
 0010 494f5f72 6561645f 70747200 5f636861  IO_read_ptr._cha
 0020 696e0073 697a655f 74005f73 686f7274  in.size_t._short
 0030 62756600 5f494f5f 325f315f 73746465  buf._IO_2_1_stde
 0040 72725f00 5f494f5f 6275665f 62617365  rr_._IO_buf_base
 0050 00474e55 20433131 20362e33 2e302032  .GNU C11 6.3.0 2
 0060 30313730 34303620 2d6d7475 6e653d67  0170406 -mtune=g
 0070 656e6572 6963202d 6d617263 683d6936  eneric -march=i6
 0080 3836202d 67676462 202d4f31 202d6673  86 -ggdb -O1 -fs
 0090 7461636b 2d70726f 74656374 6f722d73  tack-protector-s
 00a0 74726f6e 67006c6f 6e67206c 6f6e6720  trong.long long 
 00b0 756e7369 676e6564 20696e74 00726561  unsigned int.rea
 00c0 645f6c69 6e65006c 6f6e6720 6c6f6e67  d_line.long long
 00d0 20696e74 00706861 73655f64 65667573   int.phase_defus
 00e0 6564005f 66696c65 6e6f005f 494f5f72  ed._fileno._IO_r
 00f0 6561645f 656e6400 5f666c61 6773005f  ead_end._flags._
 0100 494f5f62 75665f65 6e64005f 6375725f  IO_buf_end._cur_
 0110 636f6c75 6d6e005f 5f717561 645f7400  column.__quad_t.
 0120 5f5f7072 696e7466 5f63686b 005f6f6c  __printf_chk._ol
 0130 645f6f66 66736574 00696e66 696c6500  d_offset.infile.
 0140 696e6974 69616c69 7a655f62 6f6d6200  initialize_bomb.
 0150 5f494f5f 6d61726b 65720073 7464696e  _IO_marker.stdin
 0160 005f494f 5f46494c 455f706c 7573005f  ._IO_FILE_plus._
 0170 494f5f77 72697465 5f707472 00737973  IO_write_ptr.sys
 0180 5f6e6572 72005f73 62756600 73686f72  _nerr._sbuf.shor
 0190 7420756e 7369676e 65642069 6e74005f  t unsigned int._
 01a0 494f5f73 6176655f 62617365 005f6c6f  IO_save_base._lo
 01b0 636b005f 666c6167 7332005f 6d6f6465  ck._flags2._mode
 01c0 005f5f62 75696c74 696e5f70 75747300  .__builtin_puts.
 01d0 7374646f 7574005f 494f5f32 5f315f73  stdout._IO_2_1_s
 01e0 7464696e 5f007369 7a657479 7065002f  tdin_.sizetype./
 01f0 686f6d65 2f77616e 6764712f 69637332  home/wangdq/ics2
 0200 3031382f 6c616232 2f737263 005f494f  018/lab2/src._IO
 0210 5f777269 74655f65 6e64005f 494f5f6c  _write_end._IO_l
 0220 6f636b5f 74005f49 4f5f4649 4c450066  ock_t._IO_FILE.f
 0230 6f70656e 005f706f 73007379 735f6572  open._pos.sys_er
 0240 726c6973 74005f6d 61726b65 72730075  rlist._markers.u
 0250 6e736967 6e656420 63686172 0073686f  nsigned char.sho
 0260 72742069 6e74005f 76746162 6c655f6f  rt int._vtable_o
 0270 66667365 74005f49 4f5f325f 315f7374  ffset._IO_2_1_st
 0280 646f7574 5f006578 69740062 6f6d622e  dout_.exit.bomb.
 0290 6300696e 70757400 5f6e6578 74005f5f  c.input._next.__
 02a0 6f666636 345f7400 5f494f5f 72656164  off64_t._IO_read
 02b0 5f626173 65005f49 4f5f7361 76655f65  _base._IO_save_e
 02c0 6e64005f 5f666d74 005f5f70 61643100  nd.__fmt.__pad1.
 02d0 5f5f7061 6432005f 5f706164 33005f5f  __pad2.__pad3.__
 02e0 70616434 005f5f70 61643500 5f756e75  pad4.__pad5._unu
 02f0 73656432 00737464 65727200 61726776  sed2.stderr.argv
 0300 00706861 73655f31 00706861 73655f32  .phase_1.phase_2
 0310 00706861 73655f33 00706861 73655f34  .phase_3.phase_4
 0320 00706861 73655f35 00706861 73655f36  .phase_5.phase_6
 0330 005f494f 5f626163 6b75705f 62617365  ._IO_backup_base
 0340 00617267 63006d61 696e005f 494f5f77  .argc.main._IO_w
 0350 72697465 5f626173 6500               rite_base.      
Contents of section .debug_loc:
 0000 00000000 53000000 02009100 1e010000  ....S...........
 0010 23010000 01005023 0100004a 01000002  #.....P#...J....
 0020 0091004a 0100005a 01000001 00505a01  ...J...Z.....PZ.
 0030 00006701 00000200 91000000 00000000  ..g.............
 0040 00000000 00005300 00000200 91041e01  ......S.........
 0050 00006701 00000200 91040000 00000000  ..g.............
 0060 00006900 00007000 00000100 50870000  ..i...p.....P...
 0070 008e0000 00010050 a5000000 ac000000  .......P........
 0080 010050c3 000000ca 00000001 0050e100  ..P..........P..
 0090 0000e800 00000100 50ff0000 00060100  ........P.......
 00a0 00010050 00000000 00000000 4b000000  ...P........K...
 00b0 58000000 0600f2c1 05000000 00000000  X...............
 00c0 00000000 58000000 64000000 0600f210  ....X...d.......
 00d0 06000000 00000000 00000000 76000000  ............v...
 00e0 82000000 0600f241 06000000 00000000  .......A........
 00f0 00000000 94000000 a0000000 0600f26f  ...............o
 0100 06000000 00000000 00000000 b2000000  ................
 0110 be000000 0600f292 06000000 00000000  ................
 0120 00000000 d0000000 dc000000 0600f2a6  ................
 0130 06000000 00000000 00000000 ee000000  ................
 0140 fa000000 0600f2cf 06000000 00000000  ................
 0150 00000000 2d010000 3e010000 060003aa  ....-...>.......
 0160 9f04089f 00000000 00000000 4a010000  ............J...
 0170 5b010000 060003c7 9f04089f 00000000  [...............
 0180 00000000                             ....            

Disassembly of section .init:

080486f4 <_init>:
 80486f4:	53                   	push   %ebx
 80486f5:	83 ec 08             	sub    $0x8,%esp
 80486f8:	e8 13 02 00 00       	call   8048910 <__x86.get_pc_thunk.bx>
 80486fd:	81 c3 03 39 00 00    	add    $0x3903,%ebx
 8048703:	8b 83 fc ff ff ff    	mov    -0x4(%ebx),%eax
 8048709:	85 c0                	test   %eax,%eax
 804870b:	74 05                	je     8048712 <_init+0x1e>
 804870d:	e8 be 01 00 00       	call   80488d0 <__gmon_start__@plt>
 8048712:	83 c4 08             	add    $0x8,%esp
 8048715:	5b                   	pop    %ebx
 8048716:	c3                   	ret    

Disassembly of section .plt:

08048720 <.plt>:
 8048720:	ff 35 04 c0 04 08    	push   0x804c004
 8048726:	ff 25 08 c0 04 08    	jmp    *0x804c008
 804872c:	00 00                	add    %al,(%eax)
	...

08048730 <read@plt>:
 8048730:	ff 25 0c c0 04 08    	jmp    *0x804c00c
 8048736:	68 00 00 00 00       	push   $0x0
 804873b:	e9 e0 ff ff ff       	jmp    8048720 <.plt>

08048740 <fflush@plt>:
 8048740:	ff 25 10 c0 04 08    	jmp    *0x804c010
 8048746:	68 08 00 00 00       	push   $0x8
 804874b:	e9 d0 ff ff ff       	jmp    8048720 <.plt>

08048750 <fgets@plt>:
 8048750:	ff 25 14 c0 04 08    	jmp    *0x804c014
 8048756:	68 10 00 00 00       	push   $0x10
 804875b:	e9 c0 ff ff ff       	jmp    8048720 <.plt>

08048760 <signal@plt>:
 8048760:	ff 25 18 c0 04 08    	jmp    *0x804c018
 8048766:	68 18 00 00 00       	push   $0x18
 804876b:	e9 b0 ff ff ff       	jmp    8048720 <.plt>

08048770 <sleep@plt>:
 8048770:	ff 25 1c c0 04 08    	jmp    *0x804c01c
 8048776:	68 20 00 00 00       	push   $0x20
 804877b:	e9 a0 ff ff ff       	jmp    8048720 <.plt>

08048780 <alarm@plt>:
 8048780:	ff 25 20 c0 04 08    	jmp    *0x804c020
 8048786:	68 28 00 00 00       	push   $0x28
 804878b:	e9 90 ff ff ff       	jmp    8048720 <.plt>

08048790 <__stack_chk_fail@plt>:
 8048790:	ff 25 24 c0 04 08    	jmp    *0x804c024
 8048796:	68 30 00 00 00       	push   $0x30
 804879b:	e9 80 ff ff ff       	jmp    8048720 <.plt>

080487a0 <strcpy@plt>:
 80487a0:	ff 25 28 c0 04 08    	jmp    *0x804c028
 80487a6:	68 38 00 00 00       	push   $0x38
 80487ab:	e9 70 ff ff ff       	jmp    8048720 <.plt>

080487b0 <getenv@plt>:
 80487b0:	ff 25 2c c0 04 08    	jmp    *0x804c02c
 80487b6:	68 40 00 00 00       	push   $0x40
 80487bb:	e9 60 ff ff ff       	jmp    8048720 <.plt>

080487c0 <puts@plt>:
 80487c0:	ff 25 30 c0 04 08    	jmp    *0x804c030
 80487c6:	68 48 00 00 00       	push   $0x48
 80487cb:	e9 50 ff ff ff       	jmp    8048720 <.plt>

080487d0 <__memmove_chk@plt>:
 80487d0:	ff 25 34 c0 04 08    	jmp    *0x804c034
 80487d6:	68 50 00 00 00       	push   $0x50
 80487db:	e9 40 ff ff ff       	jmp    8048720 <.plt>

080487e0 <exit@plt>:
 80487e0:	ff 25 38 c0 04 08    	jmp    *0x804c038
 80487e6:	68 58 00 00 00       	push   $0x58
 80487eb:	e9 30 ff ff ff       	jmp    8048720 <.plt>

080487f0 <__libc_start_main@plt>:
 80487f0:	ff 25 3c c0 04 08    	jmp    *0x804c03c
 80487f6:	68 60 00 00 00       	push   $0x60
 80487fb:	e9 20 ff ff ff       	jmp    8048720 <.plt>

08048800 <write@plt>:
 8048800:	ff 25 40 c0 04 08    	jmp    *0x804c040
 8048806:	68 68 00 00 00       	push   $0x68
 804880b:	e9 10 ff ff ff       	jmp    8048720 <.plt>

08048810 <__isoc99_sscanf@plt>:
 8048810:	ff 25 44 c0 04 08    	jmp    *0x804c044
 8048816:	68 70 00 00 00       	push   $0x70
 804881b:	e9 00 ff ff ff       	jmp    8048720 <.plt>

08048820 <fopen@plt>:
 8048820:	ff 25 48 c0 04 08    	jmp    *0x804c048
 8048826:	68 78 00 00 00       	push   $0x78
 804882b:	e9 f0 fe ff ff       	jmp    8048720 <.plt>

08048830 <__errno_location@plt>:
 8048830:	ff 25 4c c0 04 08    	jmp    *0x804c04c
 8048836:	68 80 00 00 00       	push   $0x80
 804883b:	e9 e0 fe ff ff       	jmp    8048720 <.plt>

08048840 <__printf_chk@plt>:
 8048840:	ff 25 50 c0 04 08    	jmp    *0x804c050
 8048846:	68 88 00 00 00       	push   $0x88
 804884b:	e9 d0 fe ff ff       	jmp    8048720 <.plt>

08048850 <socket@plt>:
 8048850:	ff 25 54 c0 04 08    	jmp    *0x804c054
 8048856:	68 90 00 00 00       	push   $0x90
 804885b:	e9 c0 fe ff ff       	jmp    8048720 <.plt>

08048860 <__fprintf_chk@plt>:
 8048860:	ff 25 58 c0 04 08    	jmp    *0x804c058
 8048866:	68 98 00 00 00       	push   $0x98
 804886b:	e9 b0 fe ff ff       	jmp    8048720 <.plt>

08048870 <gethostbyname@plt>:
 8048870:	ff 25 5c c0 04 08    	jmp    *0x804c05c
 8048876:	68 a0 00 00 00       	push   $0xa0
 804887b:	e9 a0 fe ff ff       	jmp    8048720 <.plt>

08048880 <strtol@plt>:
 8048880:	ff 25 60 c0 04 08    	jmp    *0x804c060
 8048886:	68 a8 00 00 00       	push   $0xa8
 804888b:	e9 90 fe ff ff       	jmp    8048720 <.plt>

08048890 <connect@plt>:
 8048890:	ff 25 64 c0 04 08    	jmp    *0x804c064
 8048896:	68 b0 00 00 00       	push   $0xb0
 804889b:	e9 80 fe ff ff       	jmp    8048720 <.plt>

080488a0 <close@plt>:
 80488a0:	ff 25 68 c0 04 08    	jmp    *0x804c068
 80488a6:	68 b8 00 00 00       	push   $0xb8
 80488ab:	e9 70 fe ff ff       	jmp    8048720 <.plt>

080488b0 <__ctype_b_loc@plt>:
 80488b0:	ff 25 6c c0 04 08    	jmp    *0x804c06c
 80488b6:	68 c0 00 00 00       	push   $0xc0
 80488bb:	e9 60 fe ff ff       	jmp    8048720 <.plt>

080488c0 <__sprintf_chk@plt>:
 80488c0:	ff 25 70 c0 04 08    	jmp    *0x804c070
 80488c6:	68 c8 00 00 00       	push   $0xc8
 80488cb:	e9 50 fe ff ff       	jmp    8048720 <.plt>

Disassembly of section .plt.got:

080488d0 <__gmon_start__@plt>:
 80488d0:	ff 25 fc bf 04 08    	jmp    *0x804bffc
 80488d6:	66 90                	xchg   %ax,%ax

Disassembly of section .text:

080488e0 <_start>:
 80488e0:	31 ed                	xor    %ebp,%ebp
 80488e2:	5e                   	pop    %esi
 80488e3:	89 e1                	mov    %esp,%ecx
 80488e5:	83 e4 f0             	and    $0xfffffff0,%esp
 80488e8:	50                   	push   %eax
 80488e9:	54                   	push   %esp
 80488ea:	52                   	push   %edx
 80488eb:	68 70 9f 04 08       	push   $0x8049f70
 80488f0:	68 10 9f 04 08       	push   $0x8049f10
 80488f5:	51                   	push   %ecx
 80488f6:	56                   	push   %esi
 80488f7:	68 db 89 04 08       	push   $0x80489db
 80488fc:	e8 ef fe ff ff       	call   80487f0 <__libc_start_main@plt>
 8048901:	f4                   	hlt    
 8048902:	66 90                	xchg   %ax,%ax
 8048904:	66 90                	xchg   %ax,%ax
 8048906:	66 90                	xchg   %ax,%ax
 8048908:	66 90                	xchg   %ax,%ax
 804890a:	66 90                	xchg   %ax,%ax
 804890c:	66 90                	xchg   %ax,%ax
 804890e:	66 90                	xchg   %ax,%ax

08048910 <__x86.get_pc_thunk.bx>:
 8048910:	8b 1c 24             	mov    (%esp),%ebx
 8048913:	c3                   	ret    
 8048914:	66 90                	xchg   %ax,%ax
 8048916:	66 90                	xchg   %ax,%ax
 8048918:	66 90                	xchg   %ax,%ax
 804891a:	66 90                	xchg   %ax,%ax
 804891c:	66 90                	xchg   %ax,%ax
 804891e:	66 90                	xchg   %ax,%ax

08048920 <deregister_tm_clones>:
 8048920:	b8 a3 c3 04 08       	mov    $0x804c3a3,%eax
 8048925:	2d a0 c3 04 08       	sub    $0x804c3a0,%eax
 804892a:	83 f8 06             	cmp    $0x6,%eax
 804892d:	76 1a                	jbe    8048949 <deregister_tm_clones+0x29>
 804892f:	b8 00 00 00 00       	mov    $0x0,%eax
 8048934:	85 c0                	test   %eax,%eax
 8048936:	74 11                	je     8048949 <deregister_tm_clones+0x29>
 8048938:	55                   	push   %ebp
 8048939:	89 e5                	mov    %esp,%ebp
 804893b:	83 ec 14             	sub    $0x14,%esp
 804893e:	68 a0 c3 04 08       	push   $0x804c3a0
 8048943:	ff d0                	call   *%eax
 8048945:	83 c4 10             	add    $0x10,%esp
 8048948:	c9                   	leave  
 8048949:	f3 c3                	repz ret 
 804894b:	90                   	nop
 804894c:	8d 74 26 00          	lea    0x0(%esi,%eiz,1),%esi

08048950 <register_tm_clones>:
 8048950:	b8 a0 c3 04 08       	mov    $0x804c3a0,%eax
 8048955:	2d a0 c3 04 08       	sub    $0x804c3a0,%eax
 804895a:	c1 f8 02             	sar    $0x2,%eax
 804895d:	89 c2                	mov    %eax,%edx
 804895f:	c1 ea 1f             	shr    $0x1f,%edx
 8048962:	01 d0                	add    %edx,%eax
 8048964:	d1 f8                	sar    %eax
 8048966:	74 1b                	je     8048983 <register_tm_clones+0x33>
 8048968:	ba 00 00 00 00       	mov    $0x0,%edx
 804896d:	85 d2                	test   %edx,%edx
 804896f:	74 12                	je     8048983 <register_tm_clones+0x33>
 8048971:	55                   	push   %ebp
 8048972:	89 e5                	mov    %esp,%ebp
 8048974:	83 ec 10             	sub    $0x10,%esp
 8048977:	50                   	push   %eax
 8048978:	68 a0 c3 04 08       	push   $0x804c3a0
 804897d:	ff d2                	call   *%edx
 804897f:	83 c4 10             	add    $0x10,%esp
 8048982:	c9                   	leave  
 8048983:	f3 c3                	repz ret 
 8048985:	8d 74 26 00          	lea    0x0(%esi,%eiz,1),%esi
 8048989:	8d bc 27 00 00 00 00 	lea    0x0(%edi,%eiz,1),%edi

08048990 <__do_global_dtors_aux>:
 8048990:	80 3d c8 c3 04 08 00 	cmpb   $0x0,0x804c3c8
 8048997:	75 13                	jne    80489ac <__do_global_dtors_aux+0x1c>
 8048999:	55                   	push   %ebp
 804899a:	89 e5                	mov    %esp,%ebp
 804899c:	83 ec 08             	sub    $0x8,%esp
 804899f:	e8 7c ff ff ff       	call   8048920 <deregister_tm_clones>
 80489a4:	c6 05 c8 c3 04 08 01 	movb   $0x1,0x804c3c8
 80489ab:	c9                   	leave  
 80489ac:	f3 c3                	repz ret 
 80489ae:	66 90                	xchg   %ax,%ax

080489b0 <frame_dummy>:
 80489b0:	b8 10 bf 04 08       	mov    $0x804bf10,%eax
 80489b5:	8b 10                	mov    (%eax),%edx
 80489b7:	85 d2                	test   %edx,%edx
 80489b9:	75 05                	jne    80489c0 <frame_dummy+0x10>
 80489bb:	eb 93                	jmp    8048950 <register_tm_clones>
 80489bd:	8d 76 00             	lea    0x0(%esi),%esi
 80489c0:	ba 00 00 00 00       	mov    $0x0,%edx
 80489c5:	85 d2                	test   %edx,%edx
 80489c7:	74 f2                	je     80489bb <frame_dummy+0xb>
 80489c9:	55                   	push   %ebp
 80489ca:	89 e5                	mov    %esp,%ebp
 80489cc:	83 ec 14             	sub    $0x14,%esp
 80489cf:	50                   	push   %eax
 80489d0:	ff d2                	call   *%edx
 80489d2:	83 c4 10             	add    $0x10,%esp
 80489d5:	c9                   	leave  
 80489d6:	e9 75 ff ff ff       	jmp    8048950 <register_tm_clones>

080489db <main>:
 80489db:	8d 4c 24 04          	lea    0x4(%esp),%ecx
 80489df:	83 e4 f0             	and    $0xfffffff0,%esp
 80489e2:	ff 71 fc             	push   -0x4(%ecx)
 80489e5:	55                   	push   %ebp
 80489e6:	89 e5                	mov    %esp,%ebp
 80489e8:	53                   	push   %ebx
 80489e9:	51                   	push   %ecx
 80489ea:	8b 01                	mov    (%ecx),%eax
 80489ec:	8b 59 04             	mov    0x4(%ecx),%ebx
 80489ef:	83 f8 01             	cmp    $0x1,%eax
 80489f2:	0f 84 01 01 00 00    	je     8048af9 <main+0x11e>
 80489f8:	83 f8 02             	cmp    $0x2,%eax
 80489fb:	0f 85 24 01 00 00    	jne    8048b25 <main+0x14a>
 8048a01:	83 ec 08             	sub    $0x8,%esp
 8048a04:	68 a8 9f 04 08       	push   $0x8049fa8
 8048a09:	ff 73 04             	push   0x4(%ebx)
 8048a0c:	e8 0f fe ff ff       	call   8048820 <fopen@plt>
 8048a11:	a3 d0 c3 04 08       	mov    %eax,0x804c3d0
 8048a16:	83 c4 10             	add    $0x10,%esp
 8048a19:	85 c0                	test   %eax,%eax
 8048a1b:	0f 84 e7 00 00 00    	je     8048b08 <main+0x12d>
 8048a21:	e8 0b 07 00 00       	call   8049131 <initialize_bomb>
 8048a26:	83 ec 0c             	sub    $0xc,%esp
 8048a29:	68 2c a0 04 08       	push   $0x804a02c
 8048a2e:	e8 8d fd ff ff       	call   80487c0 <puts@plt>
 8048a33:	c7 04 24 68 a0 04 08 	movl   $0x804a068,(%esp)
 8048a3a:	e8 81 fd ff ff       	call   80487c0 <puts@plt>
 8048a3f:	e8 dd 07 00 00       	call   8049221 <read_line>
 8048a44:	89 04 24             	mov    %eax,(%esp)
 8048a47:	e8 f6 00 00 00       	call   8048b42 <phase_1>
 8048a4c:	e8 cf 08 00 00       	call   8049320 <phase_defused>
 8048a51:	c7 04 24 94 a0 04 08 	movl   $0x804a094,(%esp)
 8048a58:	e8 63 fd ff ff       	call   80487c0 <puts@plt>
 8048a5d:	e8 bf 07 00 00       	call   8049221 <read_line>
 8048a62:	89 04 24             	mov    %eax,(%esp)
 8048a65:	e8 fb 00 00 00       	call   8048b65 <phase_2>
 8048a6a:	e8 b1 08 00 00       	call   8049320 <phase_defused>
 8048a6f:	c7 04 24 e1 9f 04 08 	movl   $0x8049fe1,(%esp)
 8048a76:	e8 45 fd ff ff       	call   80487c0 <puts@plt>
 8048a7b:	e8 a1 07 00 00       	call   8049221 <read_line>
 8048a80:	89 04 24             	mov    %eax,(%esp)
 8048a83:	e8 4c 01 00 00       	call   8048bd4 <phase_3>
 8048a88:	e8 93 08 00 00       	call   8049320 <phase_defused>
 8048a8d:	c7 04 24 ff 9f 04 08 	movl   $0x8049fff,(%esp)
 8048a94:	e8 27 fd ff ff       	call   80487c0 <puts@plt>
 8048a99:	e8 83 07 00 00       	call   8049221 <read_line>
 8048a9e:	89 04 24             	mov    %eax,(%esp)
 8048aa1:	e8 ed 02 00 00       	call   8048d93 <phase_4>
 8048aa6:	e8 75 08 00 00       	call   8049320 <phase_defused>
 8048aab:	c7 04 24 c0 a0 04 08 	movl   $0x804a0c0,(%esp)
 8048ab2:	e8 09 fd ff ff       	call   80487c0 <puts@plt>
 8048ab7:	e8 65 07 00 00       	call   8049221 <read_line>
 8048abc:	89 04 24             	mov    %eax,(%esp)
 8048abf:	e8 48 03 00 00       	call   8048e0c <phase_5>
 8048ac4:	e8 57 08 00 00       	call   8049320 <phase_defused>
 8048ac9:	c7 04 24 0e a0 04 08 	movl   $0x804a00e,(%esp)
 8048ad0:	e8 eb fc ff ff       	call   80487c0 <puts@plt>
 8048ad5:	e8 47 07 00 00       	call   8049221 <read_line>
 8048ada:	89 04 24             	mov    %eax,(%esp)
 8048add:	e8 b9 03 00 00       	call   8048e9b <phase_6>
 8048ae2:	e8 39 08 00 00       	call   8049320 <phase_defused>
 8048ae7:	83 c4 10             	add    $0x10,%esp
 8048aea:	b8 00 00 00 00       	mov    $0x0,%eax
 8048aef:	8d 65 f8             	lea    -0x8(%ebp),%esp
 8048af2:	59                   	pop    %ecx
 8048af3:	5b                   	pop    %ebx
 8048af4:	5d                   	pop    %ebp
 8048af5:	8d 61 fc             	lea    -0x4(%ecx),%esp
 8048af8:	c3                   	ret    
 8048af9:	a1 c0 c3 04 08       	mov    0x804c3c0,%eax
 8048afe:	a3 d0 c3 04 08       	mov    %eax,0x804c3d0
 8048b03:	e9 19 ff ff ff       	jmp    8048a21 <main+0x46>
 8048b08:	ff 73 04             	push   0x4(%ebx)
 8048b0b:	ff 33                	push   (%ebx)
 8048b0d:	68 aa 9f 04 08       	push   $0x8049faa
 8048b12:	6a 01                	push   $0x1
 8048b14:	e8 27 fd ff ff       	call   8048840 <__printf_chk@plt>
 8048b19:	c7 04 24 08 00 00 00 	movl   $0x8,(%esp)
 8048b20:	e8 bb fc ff ff       	call   80487e0 <exit@plt>
 8048b25:	83 ec 04             	sub    $0x4,%esp
 8048b28:	ff 33                	push   (%ebx)
 8048b2a:	68 c7 9f 04 08       	push   $0x8049fc7
 8048b2f:	6a 01                	push   $0x1
 8048b31:	e8 0a fd ff ff       	call   8048840 <__printf_chk@plt>
 8048b36:	c7 04 24 08 00 00 00 	movl   $0x8,(%esp)
 8048b3d:	e8 9e fc ff ff       	call   80487e0 <exit@plt>

08048b42 <phase_1>:
 8048b42:	83 ec 14             	sub    $0x14,%esp
 8048b45:	68 e4 a0 04 08       	push   $0x804a0e4
 8048b4a:	ff 74 24 1c          	push   0x1c(%esp)
 8048b4e:	e8 79 05 00 00       	call   80490cc <strings_not_equal>
 8048b53:	83 c4 10             	add    $0x10,%esp
 8048b56:	85 c0                	test   %eax,%eax
 8048b58:	75 04                	jne    8048b5e <phase_1+0x1c>
 8048b5a:	83 c4 0c             	add    $0xc,%esp
 8048b5d:	c3                   	ret    
 8048b5e:	e8 5e 06 00 00       	call   80491c1 <explode_bomb>
 8048b63:	eb f5                	jmp    8048b5a <phase_1+0x18>

08048b65 <phase_2>:
 8048b65:	56                   	push   %esi
 8048b66:	53                   	push   %ebx
 8048b67:	83 ec 2c             	sub    $0x2c,%esp
 8048b6a:	65 a1 14 00 00 00    	mov    %gs:0x14,%eax
 8048b70:	89 44 24 24          	mov    %eax,0x24(%esp)
 8048b74:	31 c0                	xor    %eax,%eax
 8048b76:	8d 44 24 0c          	lea    0xc(%esp),%eax
 8048b7a:	50                   	push   %eax
 8048b7b:	ff 74 24 3c          	push   0x3c(%esp)
 8048b7f:	e8 62 06 00 00       	call   80491e6 <read_six_numbers>
 8048b84:	83 c4 10             	add    $0x10,%esp
 8048b87:	83 7c 24 04 00       	cmpl   $0x0,0x4(%esp)
 8048b8c:	75 07                	jne    8048b95 <phase_2+0x30>
 8048b8e:	83 7c 24 08 01       	cmpl   $0x1,0x8(%esp)
 8048b93:	74 05                	je     8048b9a <phase_2+0x35>
 8048b95:	e8 27 06 00 00       	call   80491c1 <explode_bomb>
 8048b9a:	8d 5c 24 04          	lea    0x4(%esp),%ebx
 8048b9e:	8d 74 24 14          	lea    0x14(%esp),%esi
 8048ba2:	eb 07                	jmp    8048bab <phase_2+0x46>
 8048ba4:	83 c3 04             	add    $0x4,%ebx
 8048ba7:	39 f3                	cmp    %esi,%ebx
 8048ba9:	74 11                	je     8048bbc <phase_2+0x57>
 8048bab:	8b 43 04             	mov    0x4(%ebx),%eax
 8048bae:	03 03                	add    (%ebx),%eax
 8048bb0:	39 43 08             	cmp    %eax,0x8(%ebx)
 8048bb3:	74 ef                	je     8048ba4 <phase_2+0x3f>
 8048bb5:	e8 07 06 00 00       	call   80491c1 <explode_bomb>
 8048bba:	eb e8                	jmp    8048ba4 <phase_2+0x3f>
 8048bbc:	8b 44 24 1c          	mov    0x1c(%esp),%eax
 8048bc0:	65 33 05 14 00 00 00 	xor    %gs:0x14,%eax
 8048bc7:	75 06                	jne    8048bcf <phase_2+0x6a>
 8048bc9:	83 c4 24             	add    $0x24,%esp
 8048bcc:	5b                   	pop    %ebx
 8048bcd:	5e                   	pop    %esi
 8048bce:	c3                   	ret    
 8048bcf:	e8 bc fb ff ff       	call   8048790 <__stack_chk_fail@plt>

08048bd4 <phase_3>:
 8048bd4:	83 ec 28             	sub    $0x28,%esp
 8048bd7:	65 a1 14 00 00 00    	mov    %gs:0x14,%eax
 8048bdd:	89 44 24 18          	mov    %eax,0x18(%esp)
 8048be1:	31 c0                	xor    %eax,%eax
 8048be3:	8d 44 24 14          	lea    0x14(%esp),%eax
 8048be7:	50                   	push   %eax
 8048be8:	8d 44 24 13          	lea    0x13(%esp),%eax
 8048bec:	50                   	push   %eax
 8048bed:	8d 44 24 18          	lea    0x18(%esp),%eax
 8048bf1:	50                   	push   %eax
 8048bf2:	68 3e a1 04 08       	push   $0x804a13e
 8048bf7:	ff 74 24 3c          	push   0x3c(%esp)
 8048bfb:	e8 10 fc ff ff       	call   8048810 <__isoc99_sscanf@plt>
 8048c00:	83 c4 20             	add    $0x20,%esp
 8048c03:	83 f8 02             	cmp    $0x2,%eax
 8048c06:	7e 16                	jle    8048c1e <phase_3+0x4a>
 8048c08:	83 7c 24 04 07       	cmpl   $0x7,0x4(%esp)
 8048c0d:	0f 87 f6 00 00 00    	ja     8048d09 <phase_3+0x135>
 8048c13:	8b 44 24 04          	mov    0x4(%esp),%eax
 8048c17:	ff 24 85 60 a1 04 08 	jmp    *0x804a160(,%eax,4)
 8048c1e:	e8 9e 05 00 00       	call   80491c1 <explode_bomb>
 8048c23:	eb e3                	jmp    8048c08 <phase_3+0x34>
 8048c25:	b8 6b 00 00 00       	mov    $0x6b,%eax
 8048c2a:	83 7c 24 08 65       	cmpl   $0x65,0x8(%esp)
 8048c2f:	0f 84 de 00 00 00    	je     8048d13 <phase_3+0x13f>
 8048c35:	e8 87 05 00 00       	call   80491c1 <explode_bomb>
 8048c3a:	b8 6b 00 00 00       	mov    $0x6b,%eax
 8048c3f:	e9 cf 00 00 00       	jmp    8048d13 <phase_3+0x13f>
 8048c44:	b8 68 00 00 00       	mov    $0x68,%eax
 8048c49:	81 7c 24 08 34 02 00 	cmpl   $0x234,0x8(%esp)
 8048c50:	00 
 8048c51:	0f 84 bc 00 00 00    	je     8048d13 <phase_3+0x13f>
 8048c57:	e8 65 05 00 00       	call   80491c1 <explode_bomb>
 8048c5c:	b8 68 00 00 00       	mov    $0x68,%eax
 8048c61:	e9 ad 00 00 00       	jmp    8048d13 <phase_3+0x13f>
 8048c66:	b8 68 00 00 00       	mov    $0x68,%eax
 8048c6b:	83 7c 24 08 4f       	cmpl   $0x4f,0x8(%esp)
 8048c70:	0f 84 9d 00 00 00    	je     8048d13 <phase_3+0x13f>
 8048c76:	e8 46 05 00 00       	call   80491c1 <explode_bomb>
 8048c7b:	b8 68 00 00 00       	mov    $0x68,%eax
 8048c80:	e9 8e 00 00 00       	jmp    8048d13 <phase_3+0x13f>
 8048c85:	b8 6d 00 00 00       	mov    $0x6d,%eax
 8048c8a:	81 7c 24 08 b9 02 00 	cmpl   $0x2b9,0x8(%esp)
 8048c91:	00 
 8048c92:	74 7f                	je     8048d13 <phase_3+0x13f>
 8048c94:	e8 28 05 00 00       	call   80491c1 <explode_bomb>
 8048c99:	b8 6d 00 00 00       	mov    $0x6d,%eax
 8048c9e:	eb 73                	jmp    8048d13 <phase_3+0x13f>
 8048ca0:	b8 79 00 00 00       	mov    $0x79,%eax
 8048ca5:	81 7c 24 08 fe 00 00 	cmpl   $0xfe,0x8(%esp)
 8048cac:	00 
 8048cad:	74 64                	je     8048d13 <phase_3+0x13f>
 8048caf:	e8 0d 05 00 00       	call   80491c1 <explode_bomb>
 8048cb4:	b8 79 00 00 00       	mov    $0x79,%eax
 8048cb9:	eb 58                	jmp    8048d13 <phase_3+0x13f>
 8048cbb:	b8 65 00 00 00       	mov    $0x65,%eax
 8048cc0:	81 7c 24 08 56 01 00 	cmpl   $0x156,0x8(%esp)
 8048cc7:	00 
 8048cc8:	74 49                	je     8048d13 <phase_3+0x13f>
 8048cca:	e8 f2 04 00 00       	call   80491c1 <explode_bomb>
 8048ccf:	b8 65 00 00 00       	mov    $0x65,%eax
 8048cd4:	eb 3d                	jmp    8048d13 <phase_3+0x13f>
 8048cd6:	b8 67 00 00 00       	mov    $0x67,%eax
 8048cdb:	81 7c 24 08 94 00 00 	cmpl   $0x94,0x8(%esp)
 8048ce2:	00 
 8048ce3:	74 2e                	je     8048d13 <phase_3+0x13f>
 8048ce5:	e8 d7 04 00 00       	call   80491c1 <explode_bomb>
 8048cea:	b8 67 00 00 00       	mov    $0x67,%eax
 8048cef:	eb 22                	jmp    8048d13 <phase_3+0x13f>
 8048cf1:	b8 72 00 00 00       	mov    $0x72,%eax
 8048cf6:	83 7c 24 08 57       	cmpl   $0x57,0x8(%esp)
 8048cfb:	74 16                	je     8048d13 <phase_3+0x13f>
 8048cfd:	e8 bf 04 00 00       	call   80491c1 <explode_bomb>
 8048d02:	b8 72 00 00 00       	mov    $0x72,%eax
 8048d07:	eb 0a                	jmp    8048d13 <phase_3+0x13f>
 8048d09:	e8 b3 04 00 00       	call   80491c1 <explode_bomb>
 8048d0e:	b8 76 00 00 00       	mov    $0x76,%eax
 8048d13:	3a 44 24 03          	cmp    0x3(%esp),%al
 8048d17:	74 05                	je     8048d1e <phase_3+0x14a>
 8048d19:	e8 a3 04 00 00       	call   80491c1 <explode_bomb>
 8048d1e:	8b 44 24 0c          	mov    0xc(%esp),%eax
 8048d22:	65 33 05 14 00 00 00 	xor    %gs:0x14,%eax
 8048d29:	75 04                	jne    8048d2f <phase_3+0x15b>
 8048d2b:	83 c4 1c             	add    $0x1c,%esp
 8048d2e:	c3                   	ret    
 8048d2f:	e8 5c fa ff ff       	call   8048790 <__stack_chk_fail@plt>

08048d34 <func4>:
 8048d34:	56                   	push   %esi
 8048d35:	53                   	push   %ebx
 8048d36:	83 ec 04             	sub    $0x4,%esp
 8048d39:	8b 4c 24 10          	mov    0x10(%esp),%ecx
 8048d3d:	8b 44 24 14          	mov    0x14(%esp),%eax
 8048d41:	8b 5c 24 18          	mov    0x18(%esp),%ebx
 8048d45:	89 de                	mov    %ebx,%esi
 8048d47:	29 c6                	sub    %eax,%esi
 8048d49:	89 f2                	mov    %esi,%edx
 8048d4b:	c1 ea 1f             	shr    $0x1f,%edx
 8048d4e:	01 f2                	add    %esi,%edx
 8048d50:	d1 fa                	sar    %edx
 8048d52:	01 c2                	add    %eax,%edx
 8048d54:	39 ca                	cmp    %ecx,%edx
 8048d56:	7f 0f                	jg     8048d67 <func4+0x33>
 8048d58:	b8 00 00 00 00       	mov    $0x0,%eax
 8048d5d:	39 ca                	cmp    %ecx,%edx
 8048d5f:	7c 1b                	jl     8048d7c <func4+0x48>
 8048d61:	83 c4 04             	add    $0x4,%esp
 8048d64:	5b                   	pop    %ebx
 8048d65:	5e                   	pop    %esi
 8048d66:	c3                   	ret    
 8048d67:	83 ec 04             	sub    $0x4,%esp
 8048d6a:	83 ea 01             	sub    $0x1,%edx
 8048d6d:	52                   	push   %edx
 8048d6e:	50                   	push   %eax
 8048d6f:	51                   	push   %ecx
 8048d70:	e8 bf ff ff ff       	call   8048d34 <func4>
 8048d75:	83 c4 10             	add    $0x10,%esp
 8048d78:	01 c0                	add    %eax,%eax
 8048d7a:	eb e5                	jmp    8048d61 <func4+0x2d>
 8048d7c:	83 ec 04             	sub    $0x4,%esp
 8048d7f:	53                   	push   %ebx
 8048d80:	83 c2 01             	add    $0x1,%edx
 8048d83:	52                   	push   %edx
 8048d84:	51                   	push   %ecx
 8048d85:	e8 aa ff ff ff       	call   8048d34 <func4>
 8048d8a:	83 c4 10             	add    $0x10,%esp
 8048d8d:	8d 44 00 01          	lea    0x1(%eax,%eax,1),%eax
 8048d91:	eb ce                	jmp    8048d61 <func4+0x2d>

08048d93 <phase_4>:
 8048d93:	83 ec 1c             	sub    $0x1c,%esp
 8048d96:	65 a1 14 00 00 00    	mov    %gs:0x14,%eax
 8048d9c:	89 44 24 0c          	mov    %eax,0xc(%esp)
 8048da0:	31 c0                	xor    %eax,%eax
 8048da2:	8d 44 24 08          	lea    0x8(%esp),%eax
 8048da6:	50                   	push   %eax
 8048da7:	8d 44 24 08          	lea    0x8(%esp),%eax
 8048dab:	50                   	push   %eax
 8048dac:	68 cf a2 04 08       	push   $0x804a2cf
 8048db1:	ff 74 24 2c          	push   0x2c(%esp)
 8048db5:	e8 56 fa ff ff       	call   8048810 <__isoc99_sscanf@plt>
 8048dba:	83 c4 10             	add    $0x10,%esp
 8048dbd:	83 f8 02             	cmp    $0x2,%eax
 8048dc0:	74 33                	je     8048df5 <phase_4+0x62>
 8048dc2:	e8 fa 03 00 00       	call   80491c1 <explode_bomb>
 8048dc7:	83 ec 04             	sub    $0x4,%esp
 8048dca:	6a 0e                	push   $0xe
 8048dcc:	6a 00                	push   $0x0
 8048dce:	ff 74 24 10          	push   0x10(%esp)
 8048dd2:	e8 5d ff ff ff       	call   8048d34 <func4>
 8048dd7:	83 c4 10             	add    $0x10,%esp
 8048dda:	83 f8 07             	cmp    $0x7,%eax
 8048ddd:	74 1f                	je     8048dfe <phase_4+0x6b>
 8048ddf:	e8 dd 03 00 00       	call   80491c1 <explode_bomb>
 8048de4:	8b 44 24 0c          	mov    0xc(%esp),%eax
 8048de8:	65 33 05 14 00 00 00 	xor    %gs:0x14,%eax
 8048def:	75 16                	jne    8048e07 <phase_4+0x74>
 8048df1:	83 c4 1c             	add    $0x1c,%esp
 8048df4:	c3                   	ret    
 8048df5:	83 7c 24 04 0e       	cmpl   $0xe,0x4(%esp)
 8048dfa:	76 cb                	jbe    8048dc7 <phase_4+0x34>
 8048dfc:	eb c4                	jmp    8048dc2 <phase_4+0x2f>
 8048dfe:	83 7c 24 08 07       	cmpl   $0x7,0x8(%esp)
 8048e03:	75 da                	jne    8048ddf <phase_4+0x4c>
 8048e05:	eb dd                	jmp    8048de4 <phase_4+0x51>
 8048e07:	e8 84 f9 ff ff       	call   8048790 <__stack_chk_fail@plt>

08048e0c <phase_5>:
 8048e0c:	83 ec 1c             	sub    $0x1c,%esp
 8048e0f:	65 a1 14 00 00 00    	mov    %gs:0x14,%eax
 8048e15:	89 44 24 0c          	mov    %eax,0xc(%esp)
 8048e19:	31 c0                	xor    %eax,%eax
 8048e1b:	8d 44 24 08          	lea    0x8(%esp),%eax
 8048e1f:	50                   	push   %eax
 8048e20:	8d 44 24 08          	lea    0x8(%esp),%eax
 8048e24:	50                   	push   %eax
 8048e25:	68 cf a2 04 08       	push   $0x804a2cf
 8048e2a:	ff 74 24 2c          	push   0x2c(%esp)
 8048e2e:	e8 dd f9 ff ff       	call   8048810 <__isoc99_sscanf@plt>
 8048e33:	83 c4 10             	add    $0x10,%esp
 8048e36:	83 f8 01             	cmp    $0x1,%eax
 8048e39:	7e 54                	jle    8048e8f <phase_5+0x83>
 8048e3b:	8b 44 24 04          	mov    0x4(%esp),%eax
 8048e3f:	83 e0 0f             	and    $0xf,%eax
 8048e42:	89 44 24 04          	mov    %eax,0x4(%esp)
 8048e46:	83 f8 0f             	cmp    $0xf,%eax
 8048e49:	74 2e                	je     8048e79 <phase_5+0x6d>
 8048e4b:	b9 00 00 00 00       	mov    $0x0,%ecx
 8048e50:	ba 00 00 00 00       	mov    $0x0,%edx
 8048e55:	83 c2 01             	add    $0x1,%edx
 8048e58:	8b 04 85 80 a1 04 08 	mov    0x804a180(,%eax,4),%eax
 8048e5f:	01 c1                	add    %eax,%ecx
 8048e61:	83 f8 0f             	cmp    $0xf,%eax
 8048e64:	75 ef                	jne    8048e55 <phase_5+0x49>
 8048e66:	c7 44 24 04 0f 00 00 	movl   $0xf,0x4(%esp)
 8048e6d:	00 
 8048e6e:	83 fa 0f             	cmp    $0xf,%edx
 8048e71:	75 06                	jne    8048e79 <phase_5+0x6d>
 8048e73:	3b 4c 24 08          	cmp    0x8(%esp),%ecx
 8048e77:	74 05                	je     8048e7e <phase_5+0x72>
 8048e79:	e8 43 03 00 00       	call   80491c1 <explode_bomb>
 8048e7e:	8b 44 24 0c          	mov    0xc(%esp),%eax
 8048e82:	65 33 05 14 00 00 00 	xor    %gs:0x14,%eax
 8048e89:	75 0b                	jne    8048e96 <phase_5+0x8a>
 8048e8b:	83 c4 1c             	add    $0x1c,%esp
 8048e8e:	c3                   	ret    
 8048e8f:	e8 2d 03 00 00       	call   80491c1 <explode_bomb>
 8048e94:	eb a5                	jmp    8048e3b <phase_5+0x2f>
 8048e96:	e8 f5 f8 ff ff       	call   8048790 <__stack_chk_fail@plt>

08048e9b <phase_6>:
 8048e9b:	56                   	push   %esi
 8048e9c:	53                   	push   %ebx
 8048e9d:	83 ec 4c             	sub    $0x4c,%esp
 8048ea0:	65 a1 14 00 00 00    	mov    %gs:0x14,%eax
 8048ea6:	89 44 24 44          	mov    %eax,0x44(%esp)
 8048eaa:	31 c0                	xor    %eax,%eax
 8048eac:	8d 44 24 14          	lea    0x14(%esp),%eax
 8048eb0:	50                   	push   %eax
 8048eb1:	ff 74 24 5c          	push   0x5c(%esp)
 8048eb5:	e8 2c 03 00 00       	call   80491e6 <read_six_numbers>
 8048eba:	83 c4 10             	add    $0x10,%esp
 8048ebd:	be 00 00 00 00       	mov    $0x0,%esi
 8048ec2:	eb 1c                	jmp    8048ee0 <phase_6+0x45>
 8048ec4:	83 c6 01             	add    $0x1,%esi
 8048ec7:	83 fe 06             	cmp    $0x6,%esi
 8048eca:	74 2e                	je     8048efa <phase_6+0x5f>
 8048ecc:	89 f3                	mov    %esi,%ebx
 8048ece:	8b 44 9c 0c          	mov    0xc(%esp,%ebx,4),%eax
 8048ed2:	39 44 b4 08          	cmp    %eax,0x8(%esp,%esi,4)
 8048ed6:	74 1b                	je     8048ef3 <phase_6+0x58>
 8048ed8:	83 c3 01             	add    $0x1,%ebx
 8048edb:	83 fb 05             	cmp    $0x5,%ebx
 8048ede:	7e ee                	jle    8048ece <phase_6+0x33>
 8048ee0:	8b 44 b4 0c          	mov    0xc(%esp,%esi,4),%eax
 8048ee4:	83 e8 01             	sub    $0x1,%eax
 8048ee7:	83 f8 05             	cmp    $0x5,%eax
 8048eea:	76 d8                	jbe    8048ec4 <phase_6+0x29>
 8048eec:	e8 d0 02 00 00       	call   80491c1 <explode_bomb>
 8048ef1:	eb d1                	jmp    8048ec4 <phase_6+0x29>
 8048ef3:	e8 c9 02 00 00       	call   80491c1 <explode_bomb>
 8048ef8:	eb de                	jmp    8048ed8 <phase_6+0x3d>
 8048efa:	bb 00 00 00 00       	mov    $0x0,%ebx
 8048eff:	89 de                	mov    %ebx,%esi
 8048f01:	8b 4c 9c 0c          	mov    0xc(%esp,%ebx,4),%ecx
 8048f05:	b8 01 00 00 00       	mov    $0x1,%eax
 8048f0a:	ba 3c c1 04 08       	mov    $0x804c13c,%edx
 8048f0f:	83 f9 01             	cmp    $0x1,%ecx
 8048f12:	7e 0a                	jle    8048f1e <phase_6+0x83>
 8048f14:	8b 52 08             	mov    0x8(%edx),%edx
 8048f17:	83 c0 01             	add    $0x1,%eax
 8048f1a:	39 c8                	cmp    %ecx,%eax
 8048f1c:	75 f6                	jne    8048f14 <phase_6+0x79>
 8048f1e:	89 54 b4 24          	mov    %edx,0x24(%esp,%esi,4)
 8048f22:	83 c3 01             	add    $0x1,%ebx
 8048f25:	83 fb 06             	cmp    $0x6,%ebx
 8048f28:	75 d5                	jne    8048eff <phase_6+0x64>
 8048f2a:	8b 5c 24 24          	mov    0x24(%esp),%ebx
 8048f2e:	89 d9                	mov    %ebx,%ecx
 8048f30:	b8 01 00 00 00       	mov    $0x1,%eax
 8048f35:	8b 54 84 24          	mov    0x24(%esp,%eax,4),%edx
 8048f39:	89 51 08             	mov    %edx,0x8(%ecx)
 8048f3c:	83 c0 01             	add    $0x1,%eax
 8048f3f:	89 d1                	mov    %edx,%ecx
 8048f41:	83 f8 06             	cmp    $0x6,%eax
 8048f44:	75 ef                	jne    8048f35 <phase_6+0x9a>
 8048f46:	c7 42 08 00 00 00 00 	movl   $0x0,0x8(%edx)
 8048f4d:	be 05 00 00 00       	mov    $0x5,%esi
 8048f52:	eb 08                	jmp    8048f5c <phase_6+0xc1>
 8048f54:	8b 5b 08             	mov    0x8(%ebx),%ebx
 8048f57:	83 ee 01             	sub    $0x1,%esi
 8048f5a:	74 10                	je     8048f6c <phase_6+0xd1>
 8048f5c:	8b 43 08             	mov    0x8(%ebx),%eax
 8048f5f:	8b 00                	mov    (%eax),%eax
 8048f61:	39 03                	cmp    %eax,(%ebx)
 8048f63:	7d ef                	jge    8048f54 <phase_6+0xb9>
 8048f65:	e8 57 02 00 00       	call   80491c1 <explode_bomb>
 8048f6a:	eb e8                	jmp    8048f54 <phase_6+0xb9>
 8048f6c:	8b 44 24 3c          	mov    0x3c(%esp),%eax
 8048f70:	65 33 05 14 00 00 00 	xor    %gs:0x14,%eax
 8048f77:	75 06                	jne    8048f7f <phase_6+0xe4>
 8048f79:	83 c4 44             	add    $0x44,%esp
 8048f7c:	5b                   	pop    %ebx
 8048f7d:	5e                   	pop    %esi
 8048f7e:	c3                   	ret    
 8048f7f:	e8 0c f8 ff ff       	call   8048790 <__stack_chk_fail@plt>

08048f84 <fun7>:
 8048f84:	53                   	push   %ebx
 8048f85:	83 ec 08             	sub    $0x8,%esp
 8048f88:	8b 54 24 10          	mov    0x10(%esp),%edx
 8048f8c:	8b 4c 24 14          	mov    0x14(%esp),%ecx
 8048f90:	85 d2                	test   %edx,%edx
 8048f92:	74 3a                	je     8048fce <fun7+0x4a>
 8048f94:	8b 1a                	mov    (%edx),%ebx
 8048f96:	39 cb                	cmp    %ecx,%ebx
 8048f98:	7f 21                	jg     8048fbb <fun7+0x37>
 8048f9a:	b8 00 00 00 00       	mov    $0x0,%eax
 8048f9f:	39 cb                	cmp    %ecx,%ebx
 8048fa1:	74 13                	je     8048fb6 <fun7+0x32>
 8048fa3:	83 ec 08             	sub    $0x8,%esp
 8048fa6:	51                   	push   %ecx
 8048fa7:	ff 72 08             	push   0x8(%edx)
 8048faa:	e8 d5 ff ff ff       	call   8048f84 <fun7>
 8048faf:	83 c4 10             	add    $0x10,%esp
 8048fb2:	8d 44 00 01          	lea    0x1(%eax,%eax,1),%eax
 8048fb6:	83 c4 08             	add    $0x8,%esp
 8048fb9:	5b                   	pop    %ebx
 8048fba:	c3                   	ret    
 8048fbb:	83 ec 08             	sub    $0x8,%esp
 8048fbe:	51                   	push   %ecx
 8048fbf:	ff 72 04             	push   0x4(%edx)
 8048fc2:	e8 bd ff ff ff       	call   8048f84 <fun7>
 8048fc7:	83 c4 10             	add    $0x10,%esp
 8048fca:	01 c0                	add    %eax,%eax
 8048fcc:	eb e8                	jmp    8048fb6 <fun7+0x32>
 8048fce:	b8 ff ff ff ff       	mov    $0xffffffff,%eax
 8048fd3:	eb e1                	jmp    8048fb6 <fun7+0x32>

08048fd5 <secret_phase>:
 8048fd5:	53                   	push   %ebx
 8048fd6:	83 ec 08             	sub    $0x8,%esp
 8048fd9:	e8 43 02 00 00       	call   8049221 <read_line>
 8048fde:	83 ec 04             	sub    $0x4,%esp
 8048fe1:	6a 0a                	push   $0xa
 8048fe3:	6a 00                	push   $0x0
 8048fe5:	50                   	push   %eax
 8048fe6:	e8 95 f8 ff ff       	call   8048880 <strtol@plt>
 8048feb:	89 c3                	mov    %eax,%ebx
 8048fed:	8d 40 ff             	lea    -0x1(%eax),%eax
 8048ff0:	83 c4 10             	add    $0x10,%esp
 8048ff3:	3d e8 03 00 00       	cmp    $0x3e8,%eax
 8048ff8:	77 2c                	ja     8049026 <secret_phase+0x51>
 8048ffa:	83 ec 08             	sub    $0x8,%esp
 8048ffd:	53                   	push   %ebx
 8048ffe:	68 88 c0 04 08       	push   $0x804c088
 8049003:	e8 7c ff ff ff       	call   8048f84 <fun7>
 8049008:	83 c4 10             	add    $0x10,%esp
 804900b:	85 c0                	test   %eax,%eax
 804900d:	75 1e                	jne    804902d <secret_phase+0x58>
 804900f:	83 ec 0c             	sub    $0xc,%esp
 8049012:	68 18 a1 04 08       	push   $0x804a118
 8049017:	e8 a4 f7 ff ff       	call   80487c0 <puts@plt>
 804901c:	e8 ff 02 00 00       	call   8049320 <phase_defused>
 8049021:	83 c4 18             	add    $0x18,%esp
 8049024:	5b                   	pop    %ebx
 8049025:	c3                   	ret    
 8049026:	e8 96 01 00 00       	call   80491c1 <explode_bomb>
 804902b:	eb cd                	jmp    8048ffa <secret_phase+0x25>
 804902d:	e8 8f 01 00 00       	call   80491c1 <explode_bomb>
 8049032:	eb db                	jmp    804900f <secret_phase+0x3a>

08049034 <sig_handler>:
 8049034:	83 ec 18             	sub    $0x18,%esp
 8049037:	68 c0 a1 04 08       	push   $0x804a1c0
 804903c:	e8 7f f7 ff ff       	call   80487c0 <puts@plt>
 8049041:	c7 04 24 03 00 00 00 	movl   $0x3,(%esp)
 8049048:	e8 23 f7 ff ff       	call   8048770 <sleep@plt>
 804904d:	83 c4 08             	add    $0x8,%esp
 8049050:	68 82 a2 04 08       	push   $0x804a282
 8049055:	6a 01                	push   $0x1
 8049057:	e8 e4 f7 ff ff       	call   8048840 <__printf_chk@plt>
 804905c:	83 c4 04             	add    $0x4,%esp
 804905f:	ff 35 c4 c3 04 08    	push   0x804c3c4
 8049065:	e8 d6 f6 ff ff       	call   8048740 <fflush@plt>
 804906a:	c7 04 24 01 00 00 00 	movl   $0x1,(%esp)
 8049071:	e8 fa f6 ff ff       	call   8048770 <sleep@plt>
 8049076:	c7 04 24 8a a2 04 08 	movl   $0x804a28a,(%esp)
 804907d:	e8 3e f7 ff ff       	call   80487c0 <puts@plt>
 8049082:	c7 04 24 10 00 00 00 	movl   $0x10,(%esp)
 8049089:	e8 52 f7 ff ff       	call   80487e0 <exit@plt>

0804908e <invalid_phase>:
 804908e:	83 ec 10             	sub    $0x10,%esp
 8049091:	ff 74 24 14          	push   0x14(%esp)
 8049095:	68 92 a2 04 08       	push   $0x804a292
 804909a:	6a 01                	push   $0x1
 804909c:	e8 9f f7 ff ff       	call   8048840 <__printf_chk@plt>
 80490a1:	c7 04 24 08 00 00 00 	movl   $0x8,(%esp)
 80490a8:	e8 33 f7 ff ff       	call   80487e0 <exit@plt>

080490ad <string_length>:
 80490ad:	8b 54 24 04          	mov    0x4(%esp),%edx
 80490b1:	80 3a 00             	cmpb   $0x0,(%edx)
 80490b4:	74 10                	je     80490c6 <string_length+0x19>
 80490b6:	b8 00 00 00 00       	mov    $0x0,%eax
 80490bb:	83 c0 01             	add    $0x1,%eax
 80490be:	80 3c 02 00          	cmpb   $0x0,(%edx,%eax,1)
 80490c2:	75 f7                	jne    80490bb <string_length+0xe>
 80490c4:	f3 c3                	repz ret 
 80490c6:	b8 00 00 00 00       	mov    $0x0,%eax
 80490cb:	c3                   	ret    

080490cc <strings_not_equal>:
 80490cc:	57                   	push   %edi
 80490cd:	56                   	push   %esi
 80490ce:	53                   	push   %ebx
 80490cf:	8b 5c 24 10          	mov    0x10(%esp),%ebx
 80490d3:	8b 74 24 14          	mov    0x14(%esp),%esi
 80490d7:	53                   	push   %ebx
 80490d8:	e8 d0 ff ff ff       	call   80490ad <string_length>
 80490dd:	89 c7                	mov    %eax,%edi
 80490df:	89 34 24             	mov    %esi,(%esp)
 80490e2:	e8 c6 ff ff ff       	call   80490ad <string_length>
 80490e7:	83 c4 04             	add    $0x4,%esp
 80490ea:	ba 01 00 00 00       	mov    $0x1,%edx
 80490ef:	39 c7                	cmp    %eax,%edi
 80490f1:	74 06                	je     80490f9 <strings_not_equal+0x2d>
 80490f3:	89 d0                	mov    %edx,%eax
 80490f5:	5b                   	pop    %ebx
 80490f6:	5e                   	pop    %esi
 80490f7:	5f                   	pop    %edi
 80490f8:	c3                   	ret    
 80490f9:	0f b6 03             	movzbl (%ebx),%eax
 80490fc:	84 c0                	test   %al,%al
 80490fe:	74 23                	je     8049123 <strings_not_equal+0x57>
 8049100:	3a 06                	cmp    (%esi),%al
 8049102:	75 26                	jne    804912a <strings_not_equal+0x5e>
 8049104:	83 c3 01             	add    $0x1,%ebx
 8049107:	83 c6 01             	add    $0x1,%esi
 804910a:	0f b6 03             	movzbl (%ebx),%eax
 804910d:	84 c0                	test   %al,%al
 804910f:	74 0b                	je     804911c <strings_not_equal+0x50>
 8049111:	3a 06                	cmp    (%esi),%al
 8049113:	74 ef                	je     8049104 <strings_not_equal+0x38>
 8049115:	ba 01 00 00 00       	mov    $0x1,%edx
 804911a:	eb d7                	jmp    80490f3 <strings_not_equal+0x27>
 804911c:	ba 00 00 00 00       	mov    $0x0,%edx
 8049121:	eb d0                	jmp    80490f3 <strings_not_equal+0x27>
 8049123:	ba 00 00 00 00       	mov    $0x0,%edx
 8049128:	eb c9                	jmp    80490f3 <strings_not_equal+0x27>
 804912a:	ba 01 00 00 00       	mov    $0x1,%edx
 804912f:	eb c2                	jmp    80490f3 <strings_not_equal+0x27>

08049131 <initialize_bomb>:
 8049131:	83 ec 14             	sub    $0x14,%esp
 8049134:	68 34 90 04 08       	push   $0x8049034
 8049139:	6a 02                	push   $0x2
 804913b:	e8 20 f6 ff ff       	call   8048760 <signal@plt>
 8049140:	83 c4 1c             	add    $0x1c,%esp
 8049143:	c3                   	ret    

08049144 <initialize_bomb_solve>:
 8049144:	f3 c3                	repz ret 

08049146 <blank_line>:
 8049146:	56                   	push   %esi
 8049147:	53                   	push   %ebx
 8049148:	83 ec 04             	sub    $0x4,%esp
 804914b:	8b 74 24 10          	mov    0x10(%esp),%esi
 804914f:	0f b6 1e             	movzbl (%esi),%ebx
 8049152:	84 db                	test   %bl,%bl
 8049154:	74 1b                	je     8049171 <blank_line+0x2b>
 8049156:	e8 55 f7 ff ff       	call   80488b0 <__ctype_b_loc@plt>
 804915b:	83 c6 01             	add    $0x1,%esi
 804915e:	0f be db             	movsbl %bl,%ebx
 8049161:	8b 00                	mov    (%eax),%eax
 8049163:	f6 44 58 01 20       	testb  $0x20,0x1(%eax,%ebx,2)
 8049168:	75 e5                	jne    804914f <blank_line+0x9>
 804916a:	b8 00 00 00 00       	mov    $0x0,%eax
 804916f:	eb 05                	jmp    8049176 <blank_line+0x30>
 8049171:	b8 01 00 00 00       	mov    $0x1,%eax
 8049176:	83 c4 04             	add    $0x4,%esp
 8049179:	5b                   	pop    %ebx
 804917a:	5e                   	pop    %esi
 804917b:	c3                   	ret    

0804917c <skip>:
 804917c:	53                   	push   %ebx
 804917d:	83 ec 08             	sub    $0x8,%esp
 8049180:	83 ec 04             	sub    $0x4,%esp
 8049183:	ff 35 d0 c3 04 08    	push   0x804c3d0
 8049189:	6a 50                	push   $0x50
 804918b:	a1 cc c3 04 08       	mov    0x804c3cc,%eax
 8049190:	8d 04 80             	lea    (%eax,%eax,4),%eax
 8049193:	c1 e0 04             	shl    $0x4,%eax
 8049196:	05 e0 c3 04 08       	add    $0x804c3e0,%eax
 804919b:	50                   	push   %eax
 804919c:	e8 af f5 ff ff       	call   8048750 <fgets@plt>
 80491a1:	89 c3                	mov    %eax,%ebx
 80491a3:	83 c4 10             	add    $0x10,%esp
 80491a6:	85 c0                	test   %eax,%eax
 80491a8:	74 10                	je     80491ba <skip+0x3e>
 80491aa:	83 ec 0c             	sub    $0xc,%esp
 80491ad:	50                   	push   %eax
 80491ae:	e8 93 ff ff ff       	call   8049146 <blank_line>
 80491b3:	83 c4 10             	add    $0x10,%esp
 80491b6:	85 c0                	test   %eax,%eax
 80491b8:	75 c6                	jne    8049180 <skip+0x4>
 80491ba:	89 d8                	mov    %ebx,%eax
 80491bc:	83 c4 08             	add    $0x8,%esp
 80491bf:	5b                   	pop    %ebx
 80491c0:	c3                   	ret    

080491c1 <explode_bomb>:
 80491c1:	83 ec 18             	sub    $0x18,%esp
 80491c4:	68 a3 a2 04 08       	push   $0x804a2a3
 80491c9:	e8 f2 f5 ff ff       	call   80487c0 <puts@plt>
 80491ce:	c7 04 24 ac a2 04 08 	movl   $0x804a2ac,(%esp)
 80491d5:	e8 e6 f5 ff ff       	call   80487c0 <puts@plt>
 80491da:	c7 04 24 08 00 00 00 	movl   $0x8,(%esp)
 80491e1:	e8 fa f5 ff ff       	call   80487e0 <exit@plt>

080491e6 <read_six_numbers>:
 80491e6:	83 ec 0c             	sub    $0xc,%esp
 80491e9:	8b 44 24 14          	mov    0x14(%esp),%eax
 80491ed:	8d 50 14             	lea    0x14(%eax),%edx
 80491f0:	52                   	push   %edx
 80491f1:	8d 50 10             	lea    0x10(%eax),%edx
 80491f4:	52                   	push   %edx
 80491f5:	8d 50 0c             	lea    0xc(%eax),%edx
 80491f8:	52                   	push   %edx
 80491f9:	8d 50 08             	lea    0x8(%eax),%edx
 80491fc:	52                   	push   %edx
 80491fd:	8d 50 04             	lea    0x4(%eax),%edx
 8049200:	52                   	push   %edx
 8049201:	50                   	push   %eax
 8049202:	68 c3 a2 04 08       	push   $0x804a2c3
 8049207:	ff 74 24 2c          	push   0x2c(%esp)
 804920b:	e8 00 f6 ff ff       	call   8048810 <__isoc99_sscanf@plt>
 8049210:	83 c4 20             	add    $0x20,%esp
 8049213:	83 f8 05             	cmp    $0x5,%eax
 8049216:	7e 04                	jle    804921c <read_six_numbers+0x36>
 8049218:	83 c4 0c             	add    $0xc,%esp
 804921b:	c3                   	ret    
 804921c:	e8 a0 ff ff ff       	call   80491c1 <explode_bomb>

08049221 <read_line>:
 8049221:	57                   	push   %edi
 8049222:	56                   	push   %esi
 8049223:	53                   	push   %ebx
 8049224:	e8 53 ff ff ff       	call   804917c <skip>
 8049229:	85 c0                	test   %eax,%eax
 804922b:	74 4b                	je     8049278 <read_line+0x57>
 804922d:	8b 15 cc c3 04 08    	mov    0x804c3cc,%edx
 8049233:	8d 1c 92             	lea    (%edx,%edx,4),%ebx
 8049236:	c1 e3 04             	shl    $0x4,%ebx
 8049239:	81 c3 e0 c3 04 08    	add    $0x804c3e0,%ebx
 804923f:	b8 00 00 00 00       	mov    $0x0,%eax
 8049244:	b9 ff ff ff ff       	mov    $0xffffffff,%ecx
 8049249:	89 df                	mov    %ebx,%edi
 804924b:	f2 ae                	repnz scas %es:(%edi),%al
 804924d:	f7 d1                	not    %ecx
 804924f:	83 e9 01             	sub    $0x1,%ecx
 8049252:	83 f9 4e             	cmp    $0x4e,%ecx
 8049255:	0f 8f 8d 00 00 00    	jg     80492e8 <read_line+0xc7>
 804925b:	8d 04 92             	lea    (%edx,%edx,4),%eax
 804925e:	c1 e0 04             	shl    $0x4,%eax
 8049261:	c6 84 01 df c3 04 08 	movb   $0x0,0x804c3df(%ecx,%eax,1)
 8049268:	00 
 8049269:	83 c2 01             	add    $0x1,%edx
 804926c:	89 15 cc c3 04 08    	mov    %edx,0x804c3cc
 8049272:	89 d8                	mov    %ebx,%eax
 8049274:	5b                   	pop    %ebx
 8049275:	5e                   	pop    %esi
 8049276:	5f                   	pop    %edi
 8049277:	c3                   	ret    
 8049278:	a1 c0 c3 04 08       	mov    0x804c3c0,%eax
 804927d:	39 05 d0 c3 04 08    	cmp    %eax,0x804c3d0
 8049283:	74 40                	je     80492c5 <read_line+0xa4>
 8049285:	83 ec 0c             	sub    $0xc,%esp
 8049288:	68 f3 a2 04 08       	push   $0x804a2f3
 804928d:	e8 1e f5 ff ff       	call   80487b0 <getenv@plt>
 8049292:	83 c4 10             	add    $0x10,%esp
 8049295:	85 c0                	test   %eax,%eax
 8049297:	75 45                	jne    80492de <read_line+0xbd>
 8049299:	a1 c0 c3 04 08       	mov    0x804c3c0,%eax
 804929e:	a3 d0 c3 04 08       	mov    %eax,0x804c3d0
 80492a3:	e8 d4 fe ff ff       	call   804917c <skip>
 80492a8:	85 c0                	test   %eax,%eax
 80492aa:	75 81                	jne    804922d <read_line+0xc>
 80492ac:	83 ec 0c             	sub    $0xc,%esp
 80492af:	68 d5 a2 04 08       	push   $0x804a2d5
 80492b4:	e8 07 f5 ff ff       	call   80487c0 <puts@plt>
 80492b9:	c7 04 24 00 00 00 00 	movl   $0x0,(%esp)
 80492c0:	e8 1b f5 ff ff       	call   80487e0 <exit@plt>
 80492c5:	83 ec 0c             	sub    $0xc,%esp
 80492c8:	68 d5 a2 04 08       	push   $0x804a2d5
 80492cd:	e8 ee f4 ff ff       	call   80487c0 <puts@plt>
 80492d2:	c7 04 24 08 00 00 00 	movl   $0x8,(%esp)
 80492d9:	e8 02 f5 ff ff       	call   80487e0 <exit@plt>
 80492de:	83 ec 0c             	sub    $0xc,%esp
 80492e1:	6a 00                	push   $0x0
 80492e3:	e8 f8 f4 ff ff       	call   80487e0 <exit@plt>
 80492e8:	83 ec 0c             	sub    $0xc,%esp
 80492eb:	68 fe a2 04 08       	push   $0x804a2fe
 80492f0:	e8 cb f4 ff ff       	call   80487c0 <puts@plt>
 80492f5:	a1 cc c3 04 08       	mov    0x804c3cc,%eax
 80492fa:	8d 50 01             	lea    0x1(%eax),%edx
 80492fd:	89 15 cc c3 04 08    	mov    %edx,0x804c3cc
 8049303:	6b c0 50             	imul   $0x50,%eax,%eax
 8049306:	05 e0 c3 04 08       	add    $0x804c3e0,%eax
 804930b:	ba 19 a3 04 08       	mov    $0x804a319,%edx
 8049310:	b9 04 00 00 00       	mov    $0x4,%ecx
 8049315:	89 c7                	mov    %eax,%edi
 8049317:	89 d6                	mov    %edx,%esi
 8049319:	f3 a5                	rep movsl %ds:(%esi),%es:(%edi)
 804931b:	e8 a1 fe ff ff       	call   80491c1 <explode_bomb>

08049320 <phase_defused>:
 8049320:	83 ec 6c             	sub    $0x6c,%esp
 8049323:	65 a1 14 00 00 00    	mov    %gs:0x14,%eax
 8049329:	89 44 24 5c          	mov    %eax,0x5c(%esp)
 804932d:	31 c0                	xor    %eax,%eax
 804932f:	83 3d cc c3 04 08 06 	cmpl   $0x6,0x804c3cc
 8049336:	74 11                	je     8049349 <phase_defused+0x29>
 8049338:	8b 44 24 5c          	mov    0x5c(%esp),%eax
 804933c:	65 33 05 14 00 00 00 	xor    %gs:0x14,%eax
 8049343:	75 7b                	jne    80493c0 <phase_defused+0xa0>
 8049345:	83 c4 6c             	add    $0x6c,%esp
 8049348:	c3                   	ret    
 8049349:	83 ec 0c             	sub    $0xc,%esp
 804934c:	8d 44 24 18          	lea    0x18(%esp),%eax
 8049350:	50                   	push   %eax
 8049351:	8d 44 24 18          	lea    0x18(%esp),%eax
 8049355:	50                   	push   %eax
 8049356:	8d 44 24 18          	lea    0x18(%esp),%eax
 804935a:	50                   	push   %eax
 804935b:	68 29 a3 04 08       	push   $0x804a329
 8049360:	68 d0 c4 04 08       	push   $0x804c4d0
 8049365:	e8 a6 f4 ff ff       	call   8048810 <__isoc99_sscanf@plt>
 804936a:	83 c4 20             	add    $0x20,%esp
 804936d:	83 f8 03             	cmp    $0x3,%eax
 8049370:	74 12                	je     8049384 <phase_defused+0x64>
 8049372:	83 ec 0c             	sub    $0xc,%esp
 8049375:	68 58 a2 04 08       	push   $0x804a258
 804937a:	e8 41 f4 ff ff       	call   80487c0 <puts@plt>
 804937f:	83 c4 10             	add    $0x10,%esp
 8049382:	eb b4                	jmp    8049338 <phase_defused+0x18>
 8049384:	83 ec 08             	sub    $0x8,%esp
 8049387:	68 32 a3 04 08       	push   $0x804a332
 804938c:	8d 44 24 18          	lea    0x18(%esp),%eax
 8049390:	50                   	push   %eax
 8049391:	e8 36 fd ff ff       	call   80490cc <strings_not_equal>
 8049396:	83 c4 10             	add    $0x10,%esp
 8049399:	85 c0                	test   %eax,%eax
 804939b:	75 d5                	jne    8049372 <phase_defused+0x52>
 804939d:	83 ec 0c             	sub    $0xc,%esp
 80493a0:	68 f8 a1 04 08       	push   $0x804a1f8
 80493a5:	e8 16 f4 ff ff       	call   80487c0 <puts@plt>
 80493aa:	c7 04 24 20 a2 04 08 	movl   $0x804a220,(%esp)
 80493b1:	e8 0a f4 ff ff       	call   80487c0 <puts@plt>
 80493b6:	e8 1a fc ff ff       	call   8048fd5 <secret_phase>
 80493bb:	83 c4 10             	add    $0x10,%esp
 80493be:	eb b2                	jmp    8049372 <phase_defused+0x52>
 80493c0:	e8 cb f3 ff ff       	call   8048790 <__stack_chk_fail@plt>

080493c5 <sigalrm_handler>:
 80493c5:	83 ec 0c             	sub    $0xc,%esp
 80493c8:	6a 00                	push   $0x0
 80493ca:	68 88 a3 04 08       	push   $0x804a388
 80493cf:	6a 01                	push   $0x1
 80493d1:	ff 35 a0 c3 04 08    	push   0x804c3a0
 80493d7:	e8 84 f4 ff ff       	call   8048860 <__fprintf_chk@plt>
 80493dc:	c7 04 24 01 00 00 00 	movl   $0x1,(%esp)
 80493e3:	e8 f8 f3 ff ff       	call   80487e0 <exit@plt>

080493e8 <rio_readlineb>:
 80493e8:	55                   	push   %ebp
 80493e9:	57                   	push   %edi
 80493ea:	56                   	push   %esi
 80493eb:	53                   	push   %ebx
 80493ec:	83 ec 1c             	sub    $0x1c,%esp
 80493ef:	83 f9 01             	cmp    $0x1,%ecx
 80493f2:	76 79                	jbe    804946d <rio_readlineb+0x85>
 80493f4:	89 d7                	mov    %edx,%edi
 80493f6:	89 c3                	mov    %eax,%ebx
 80493f8:	89 4c 24 0c          	mov    %ecx,0xc(%esp)
 80493fc:	bd 01 00 00 00       	mov    $0x1,%ebp
 8049401:	8d 70 0c             	lea    0xc(%eax),%esi
 8049404:	eb 0a                	jmp    8049410 <rio_readlineb+0x28>
 8049406:	e8 25 f4 ff ff       	call   8048830 <__errno_location@plt>
 804940b:	83 38 04             	cmpl   $0x4,(%eax)
 804940e:	75 66                	jne    8049476 <rio_readlineb+0x8e>
 8049410:	8b 43 04             	mov    0x4(%ebx),%eax
 8049413:	85 c0                	test   %eax,%eax
 8049415:	7f 23                	jg     804943a <rio_readlineb+0x52>
 8049417:	83 ec 04             	sub    $0x4,%esp
 804941a:	68 00 20 00 00       	push   $0x2000
 804941f:	56                   	push   %esi
 8049420:	ff 33                	push   (%ebx)
 8049422:	e8 09 f3 ff ff       	call   8048730 <read@plt>
 8049427:	89 43 04             	mov    %eax,0x4(%ebx)
 804942a:	83 c4 10             	add    $0x10,%esp
 804942d:	85 c0                	test   %eax,%eax
 804942f:	78 d5                	js     8049406 <rio_readlineb+0x1e>
 8049431:	85 c0                	test   %eax,%eax
 8049433:	74 48                	je     804947d <rio_readlineb+0x95>
 8049435:	89 73 08             	mov    %esi,0x8(%ebx)
 8049438:	eb d6                	jmp    8049410 <rio_readlineb+0x28>
 804943a:	8b 4b 08             	mov    0x8(%ebx),%ecx
 804943d:	0f b6 11             	movzbl (%ecx),%edx
 8049440:	83 c1 01             	add    $0x1,%ecx
 8049443:	89 4b 08             	mov    %ecx,0x8(%ebx)
 8049446:	83 e8 01             	sub    $0x1,%eax
 8049449:	89 43 04             	mov    %eax,0x4(%ebx)
 804944c:	83 c7 01             	add    $0x1,%edi
 804944f:	88 57 ff             	mov    %dl,-0x1(%edi)
 8049452:	80 fa 0a             	cmp    $0xa,%dl
 8049455:	74 09                	je     8049460 <rio_readlineb+0x78>
 8049457:	83 c5 01             	add    $0x1,%ebp
 804945a:	3b 6c 24 0c          	cmp    0xc(%esp),%ebp
 804945e:	75 b0                	jne    8049410 <rio_readlineb+0x28>
 8049460:	c6 07 00             	movb   $0x0,(%edi)
 8049463:	89 e8                	mov    %ebp,%eax
 8049465:	83 c4 1c             	add    $0x1c,%esp
 8049468:	5b                   	pop    %ebx
 8049469:	5e                   	pop    %esi
 804946a:	5f                   	pop    %edi
 804946b:	5d                   	pop    %ebp
 804946c:	c3                   	ret    
 804946d:	89 d7                	mov    %edx,%edi
 804946f:	bd 01 00 00 00       	mov    $0x1,%ebp
 8049474:	eb ea                	jmp    8049460 <rio_readlineb+0x78>
 8049476:	b8 ff ff ff ff       	mov    $0xffffffff,%eax
 804947b:	eb 05                	jmp    8049482 <rio_readlineb+0x9a>
 804947d:	b8 00 00 00 00       	mov    $0x0,%eax
 8049482:	85 c0                	test   %eax,%eax
 8049484:	75 0c                	jne    8049492 <rio_readlineb+0xaa>
 8049486:	83 fd 01             	cmp    $0x1,%ebp
 8049489:	75 d5                	jne    8049460 <rio_readlineb+0x78>
 804948b:	bd 00 00 00 00       	mov    $0x0,%ebp
 8049490:	eb d1                	jmp    8049463 <rio_readlineb+0x7b>
 8049492:	bd ff ff ff ff       	mov    $0xffffffff,%ebp
 8049497:	eb ca                	jmp    8049463 <rio_readlineb+0x7b>

08049499 <submitr>:
 8049499:	55                   	push   %ebp
 804949a:	57                   	push   %edi
 804949b:	56                   	push   %esi
 804949c:	53                   	push   %ebx
 804949d:	81 ec 60 a0 00 00    	sub    $0xa060,%esp
 80494a3:	8b 9c 24 74 a0 00 00 	mov    0xa074(%esp),%ebx
 80494aa:	8b 84 24 7c a0 00 00 	mov    0xa07c(%esp),%eax
 80494b1:	89 44 24 0c          	mov    %eax,0xc(%esp)
 80494b5:	8b 84 24 80 a0 00 00 	mov    0xa080(%esp),%eax
 80494bc:	89 44 24 10          	mov    %eax,0x10(%esp)
 80494c0:	8b 84 24 84 a0 00 00 	mov    0xa084(%esp),%eax
 80494c7:	89 44 24 14          	mov    %eax,0x14(%esp)
 80494cb:	8b b4 24 88 a0 00 00 	mov    0xa088(%esp),%esi
 80494d2:	8b 84 24 8c a0 00 00 	mov    0xa08c(%esp),%eax
 80494d9:	89 44 24 18          	mov    %eax,0x18(%esp)
 80494dd:	65 a1 14 00 00 00    	mov    %gs:0x14,%eax
 80494e3:	89 84 24 50 a0 00 00 	mov    %eax,0xa050(%esp)
 80494ea:	31 c0                	xor    %eax,%eax
 80494ec:	c7 44 24 30 00 00 00 	movl   $0x0,0x30(%esp)
 80494f3:	00 
 80494f4:	6a 00                	push   $0x0
 80494f6:	6a 01                	push   $0x1
 80494f8:	6a 02                	push   $0x2
 80494fa:	e8 51 f3 ff ff       	call   8048850 <socket@plt>
 80494ff:	83 c4 10             	add    $0x10,%esp
 8049502:	85 c0                	test   %eax,%eax
 8049504:	0f 88 04 01 00 00    	js     804960e <submitr+0x175>
 804950a:	89 c5                	mov    %eax,%ebp
 804950c:	83 ec 0c             	sub    $0xc,%esp
 804950f:	53                   	push   %ebx
 8049510:	e8 5b f3 ff ff       	call   8048870 <gethostbyname@plt>
 8049515:	83 c4 10             	add    $0x10,%esp
 8049518:	85 c0                	test   %eax,%eax
 804951a:	0f 84 40 01 00 00    	je     8049660 <submitr+0x1c7>
 8049520:	8d 5c 24 30          	lea    0x30(%esp),%ebx
 8049524:	c7 44 24 30 00 00 00 	movl   $0x0,0x30(%esp)
 804952b:	00 
 804952c:	c7 44 24 34 00 00 00 	movl   $0x0,0x34(%esp)
 8049533:	00 
 8049534:	c7 44 24 38 00 00 00 	movl   $0x0,0x38(%esp)
 804953b:	00 
 804953c:	c7 44 24 3c 00 00 00 	movl   $0x0,0x3c(%esp)
 8049543:	00 
 8049544:	66 c7 44 24 30 02 00 	movw   $0x2,0x30(%esp)
 804954b:	6a 0c                	push   $0xc
 804954d:	ff 70 0c             	push   0xc(%eax)
 8049550:	8b 40 10             	mov    0x10(%eax),%eax
 8049553:	ff 30                	push   (%eax)
 8049555:	8d 44 24 40          	lea    0x40(%esp),%eax
 8049559:	50                   	push   %eax
 804955a:	e8 71 f2 ff ff       	call   80487d0 <__memmove_chk@plt>
 804955f:	0f b7 84 24 84 a0 00 	movzwl 0xa084(%esp),%eax
 8049566:	00 
 8049567:	66 c1 c8 08          	ror    $0x8,%ax
 804956b:	66 89 44 24 42       	mov    %ax,0x42(%esp)
 8049570:	83 c4 0c             	add    $0xc,%esp
 8049573:	6a 10                	push   $0x10
 8049575:	53                   	push   %ebx
 8049576:	55                   	push   %ebp
 8049577:	e8 14 f3 ff ff       	call   8048890 <connect@plt>
 804957c:	83 c4 10             	add    $0x10,%esp
 804957f:	85 c0                	test   %eax,%eax
 8049581:	0f 88 49 01 00 00    	js     80496d0 <submitr+0x237>
 8049587:	ba ff ff ff ff       	mov    $0xffffffff,%edx
 804958c:	b8 00 00 00 00       	mov    $0x0,%eax
 8049591:	89 d1                	mov    %edx,%ecx
 8049593:	89 f7                	mov    %esi,%edi
 8049595:	f2 ae                	repnz scas %es:(%edi),%al
 8049597:	89 cb                	mov    %ecx,%ebx
 8049599:	f7 d3                	not    %ebx
 804959b:	89 d1                	mov    %edx,%ecx
 804959d:	8b 7c 24 08          	mov    0x8(%esp),%edi
 80495a1:	f2 ae                	repnz scas %es:(%edi),%al
 80495a3:	89 4c 24 18          	mov    %ecx,0x18(%esp)
 80495a7:	89 d1                	mov    %edx,%ecx
 80495a9:	8b 7c 24 0c          	mov    0xc(%esp),%edi
 80495ad:	f2 ae                	repnz scas %es:(%edi),%al
 80495af:	89 cf                	mov    %ecx,%edi
 80495b1:	f7 d7                	not    %edi
 80495b3:	89 7c 24 1c          	mov    %edi,0x1c(%esp)
 80495b7:	89 d1                	mov    %edx,%ecx
 80495b9:	8b 7c 24 10          	mov    0x10(%esp),%edi
 80495bd:	f2 ae                	repnz scas %es:(%edi),%al
 80495bf:	8b 54 24 1c          	mov    0x1c(%esp),%edx
 80495c3:	2b 54 24 18          	sub    0x18(%esp),%edx
 80495c7:	29 ca                	sub    %ecx,%edx
 80495c9:	8d 44 5b fd          	lea    -0x3(%ebx,%ebx,2),%eax
 80495cd:	8d 44 02 7b          	lea    0x7b(%edx,%eax,1),%eax
 80495d1:	3d 00 20 00 00       	cmp    $0x2000,%eax
 80495d6:	0f 87 56 01 00 00    	ja     8049732 <submitr+0x299>
 80495dc:	8d 94 24 4c 40 00 00 	lea    0x404c(%esp),%edx
 80495e3:	b9 00 08 00 00       	mov    $0x800,%ecx
 80495e8:	b8 00 00 00 00       	mov    $0x0,%eax
 80495ed:	89 d7                	mov    %edx,%edi
 80495ef:	f3 ab                	rep stos %eax,%es:(%edi)
 80495f1:	b9 ff ff ff ff       	mov    $0xffffffff,%ecx
 80495f6:	89 f7                	mov    %esi,%edi
 80495f8:	f2 ae                	repnz scas %es:(%edi),%al
 80495fa:	f7 d1                	not    %ecx
 80495fc:	89 cb                	mov    %ecx,%ebx
 80495fe:	83 eb 01             	sub    $0x1,%ebx
 8049601:	0f 84 07 06 00 00    	je     8049c0e <submitr+0x775>
 8049607:	89 d7                	mov    %edx,%edi
 8049609:	e9 b0 01 00 00       	jmp    80497be <submitr+0x325>
 804960e:	8b 44 24 14          	mov    0x14(%esp),%eax
 8049612:	c7 00 45 72 72 6f    	movl   $0x6f727245,(%eax)
 8049618:	c7 40 04 72 3a 20 43 	movl   $0x43203a72,0x4(%eax)
 804961f:	c7 40 08 6c 69 65 6e 	movl   $0x6e65696c,0x8(%eax)
 8049626:	c7 40 0c 74 20 75 6e 	movl   $0x6e752074,0xc(%eax)
 804962d:	c7 40 10 61 62 6c 65 	movl   $0x656c6261,0x10(%eax)
 8049634:	c7 40 14 20 74 6f 20 	movl   $0x206f7420,0x14(%eax)
 804963b:	c7 40 18 63 72 65 61 	movl   $0x61657263,0x18(%eax)
 8049642:	c7 40 1c 74 65 20 73 	movl   $0x73206574,0x1c(%eax)
 8049649:	c7 40 20 6f 63 6b 65 	movl   $0x656b636f,0x20(%eax)
 8049650:	66 c7 40 24 74 00    	movw   $0x74,0x24(%eax)
 8049656:	b8 ff ff ff ff       	mov    $0xffffffff,%eax
 804965b:	e9 d0 04 00 00       	jmp    8049b30 <submitr+0x697>
 8049660:	8b 44 24 14          	mov    0x14(%esp),%eax
 8049664:	c7 00 45 72 72 6f    	movl   $0x6f727245,(%eax)
 804966a:	c7 40 04 72 3a 20 44 	movl   $0x44203a72,0x4(%eax)
 8049671:	c7 40 08 4e 53 20 69 	movl   $0x6920534e,0x8(%eax)
 8049678:	c7 40 0c 73 20 75 6e 	movl   $0x6e752073,0xc(%eax)
 804967f:	c7 40 10 61 62 6c 65 	movl   $0x656c6261,0x10(%eax)
 8049686:	c7 40 14 20 74 6f 20 	movl   $0x206f7420,0x14(%eax)
 804968d:	c7 40 18 72 65 73 6f 	movl   $0x6f736572,0x18(%eax)
 8049694:	c7 40 1c 6c 76 65 20 	movl   $0x2065766c,0x1c(%eax)
 804969b:	c7 40 20 73 65 72 76 	movl   $0x76726573,0x20(%eax)
 80496a2:	c7 40 24 65 72 20 61 	movl   $0x61207265,0x24(%eax)
 80496a9:	c7 40 28 64 64 72 65 	movl   $0x65726464,0x28(%eax)
 80496b0:	66 c7 40 2c 73 73    	movw   $0x7373,0x2c(%eax)
 80496b6:	c6 40 2e 00          	movb   $0x0,0x2e(%eax)
 80496ba:	83 ec 0c             	sub    $0xc,%esp
 80496bd:	55                   	push   %ebp
 80496be:	e8 dd f1 ff ff       	call   80488a0 <close@plt>
 80496c3:	83 c4 10             	add    $0x10,%esp
 80496c6:	b8 ff ff ff ff       	mov    $0xffffffff,%eax
 80496cb:	e9 60 04 00 00       	jmp    8049b30 <submitr+0x697>
 80496d0:	8b 44 24 14          	mov    0x14(%esp),%eax
 80496d4:	c7 00 45 72 72 6f    	movl   $0x6f727245,(%eax)
 80496da:	c7 40 04 72 3a 20 55 	movl   $0x55203a72,0x4(%eax)
 80496e1:	c7 40 08 6e 61 62 6c 	movl   $0x6c62616e,0x8(%eax)
 80496e8:	c7 40 0c 65 20 74 6f 	movl   $0x6f742065,0xc(%eax)
 80496ef:	c7 40 10 20 63 6f 6e 	movl   $0x6e6f6320,0x10(%eax)
 80496f6:	c7 40 14 6e 65 63 74 	movl   $0x7463656e,0x14(%eax)
 80496fd:	c7 40 18 20 74 6f 20 	movl   $0x206f7420,0x18(%eax)
 8049704:	c7 40 1c 74 68 65 20 	movl   $0x20656874,0x1c(%eax)
 804970b:	c7 40 20 73 65 72 76 	movl   $0x76726573,0x20(%eax)
 8049712:	66 c7 40 24 65 72    	movw   $0x7265,0x24(%eax)
 8049718:	c6 40 26 00          	movb   $0x0,0x26(%eax)
 804971c:	83 ec 0c             	sub    $0xc,%esp
 804971f:	55                   	push   %ebp
 8049720:	e8 7b f1 ff ff       	call   80488a0 <close@plt>
 8049725:	83 c4 10             	add    $0x10,%esp
 8049728:	b8 ff ff ff ff       	mov    $0xffffffff,%eax
 804972d:	e9 fe 03 00 00       	jmp    8049b30 <submitr+0x697>
 8049732:	8b 44 24 14          	mov    0x14(%esp),%eax
 8049736:	c7 00 45 72 72 6f    	movl   $0x6f727245,(%eax)
 804973c:	c7 40 04 72 3a 20 52 	movl   $0x52203a72,0x4(%eax)
 8049743:	c7 40 08 65 73 75 6c 	movl   $0x6c757365,0x8(%eax)
 804974a:	c7 40 0c 74 20 73 74 	movl   $0x74732074,0xc(%eax)
 8049751:	c7 40 10 72 69 6e 67 	movl   $0x676e6972,0x10(%eax)
 8049758:	c7 40 14 20 74 6f 6f 	movl   $0x6f6f7420,0x14(%eax)
 804975f:	c7 40 18 20 6c 61 72 	movl   $0x72616c20,0x18(%eax)
 8049766:	c7 40 1c 67 65 2e 20 	movl   $0x202e6567,0x1c(%eax)
 804976d:	c7 40 20 49 6e 63 72 	movl   $0x72636e49,0x20(%eax)
 8049774:	c7 40 24 65 61 73 65 	movl   $0x65736165,0x24(%eax)
 804977b:	c7 40 28 20 53 55 42 	movl   $0x42555320,0x28(%eax)
 8049782:	c7 40 2c 4d 49 54 52 	movl   $0x5254494d,0x2c(%eax)
 8049789:	c7 40 30 5f 4d 41 58 	movl   $0x58414d5f,0x30(%eax)
 8049790:	c7 40 34 42 55 46 00 	movl   $0x465542,0x34(%eax)
 8049797:	83 ec 0c             	sub    $0xc,%esp
 804979a:	55                   	push   %ebp
 804979b:	e8 00 f1 ff ff       	call   80488a0 <close@plt>
 80497a0:	83 c4 10             	add    $0x10,%esp
 80497a3:	b8 ff ff ff ff       	mov    $0xffffffff,%eax
 80497a8:	e9 83 03 00 00       	jmp    8049b30 <submitr+0x697>
 80497ad:	88 17                	mov    %dl,(%edi)
 80497af:	8d 7f 01             	lea    0x1(%edi),%edi
 80497b2:	83 c6 01             	add    $0x1,%esi
 80497b5:	83 eb 01             	sub    $0x1,%ebx
 80497b8:	0f 84 50 04 00 00    	je     8049c0e <submitr+0x775>
 80497be:	0f b6 16             	movzbl (%esi),%edx
 80497c1:	8d 4a d6             	lea    -0x2a(%edx),%ecx
 80497c4:	b8 01 00 00 00       	mov    $0x1,%eax
 80497c9:	80 f9 0f             	cmp    $0xf,%cl
 80497cc:	77 0d                	ja     80497db <submitr+0x342>
 80497ce:	b8 d9 ff 00 00       	mov    $0xffd9,%eax
 80497d3:	d3 e8                	shr    %cl,%eax
 80497d5:	83 f0 01             	xor    $0x1,%eax
 80497d8:	83 e0 01             	and    $0x1,%eax
 80497db:	80 fa 5f             	cmp    $0x5f,%dl
 80497de:	74 cd                	je     80497ad <submitr+0x314>
 80497e0:	84 c0                	test   %al,%al
 80497e2:	74 c9                	je     80497ad <submitr+0x314>
 80497e4:	89 d0                	mov    %edx,%eax
 80497e6:	83 e0 df             	and    $0xffffffdf,%eax
 80497e9:	83 e8 41             	sub    $0x41,%eax
 80497ec:	3c 19                	cmp    $0x19,%al
 80497ee:	76 bd                	jbe    80497ad <submitr+0x314>
 80497f0:	80 fa 20             	cmp    $0x20,%dl
 80497f3:	74 58                	je     804984d <submitr+0x3b4>
 80497f5:	8d 42 e0             	lea    -0x20(%edx),%eax
 80497f8:	3c 5f                	cmp    $0x5f,%al
 80497fa:	76 09                	jbe    8049805 <submitr+0x36c>
 80497fc:	80 fa 09             	cmp    $0x9,%dl
 80497ff:	0f 85 c5 03 00 00    	jne    8049bca <submitr+0x731>
 8049805:	83 ec 0c             	sub    $0xc,%esp
 8049808:	0f b6 d2             	movzbl %dl,%edx
 804980b:	52                   	push   %edx
 804980c:	68 94 a4 04 08       	push   $0x804a494
 8049811:	6a 08                	push   $0x8
 8049813:	6a 01                	push   $0x1
 8049815:	8d 84 24 68 80 00 00 	lea    0x8068(%esp),%eax
 804981c:	50                   	push   %eax
 804981d:	e8 9e f0 ff ff       	call   80488c0 <__sprintf_chk@plt>
 8049822:	0f b6 84 24 6c 80 00 	movzbl 0x806c(%esp),%eax
 8049829:	00 
 804982a:	88 07                	mov    %al,(%edi)
 804982c:	0f b6 84 24 6d 80 00 	movzbl 0x806d(%esp),%eax
 8049833:	00 
 8049834:	88 47 01             	mov    %al,0x1(%edi)
 8049837:	0f b6 84 24 6e 80 00 	movzbl 0x806e(%esp),%eax
 804983e:	00 
 804983f:	88 47 02             	mov    %al,0x2(%edi)
 8049842:	83 c4 20             	add    $0x20,%esp
 8049845:	8d 7f 03             	lea    0x3(%edi),%edi
 8049848:	e9 65 ff ff ff       	jmp    80497b2 <submitr+0x319>
 804984d:	c6 07 2b             	movb   $0x2b,(%edi)
 8049850:	8d 7f 01             	lea    0x1(%edi),%edi
 8049853:	e9 5a ff ff ff       	jmp    80497b2 <submitr+0x319>
 8049858:	01 c6                	add    %eax,%esi
 804985a:	29 c3                	sub    %eax,%ebx
 804985c:	74 24                	je     8049882 <submitr+0x3e9>
 804985e:	83 ec 04             	sub    $0x4,%esp
 8049861:	53                   	push   %ebx
 8049862:	56                   	push   %esi
 8049863:	55                   	push   %ebp
 8049864:	e8 97 ef ff ff       	call   8048800 <write@plt>
 8049869:	83 c4 10             	add    $0x10,%esp
 804986c:	85 c0                	test   %eax,%eax
 804986e:	7f e8                	jg     8049858 <submitr+0x3bf>
 8049870:	e8 bb ef ff ff       	call   8048830 <__errno_location@plt>
 8049875:	83 38 04             	cmpl   $0x4,(%eax)
 8049878:	0f 85 b0 00 00 00    	jne    804992e <submitr+0x495>
 804987e:	89 f8                	mov    %edi,%eax
 8049880:	eb d6                	jmp    8049858 <submitr+0x3bf>
 8049882:	83 7c 24 08 00       	cmpl   $0x0,0x8(%esp)
 8049887:	0f 88 a1 00 00 00    	js     804992e <submitr+0x495>
 804988d:	89 6c 24 40          	mov    %ebp,0x40(%esp)
 8049891:	c7 44 24 44 00 00 00 	movl   $0x0,0x44(%esp)
 8049898:	00 
 8049899:	8d 44 24 4c          	lea    0x4c(%esp),%eax
 804989d:	89 44 24 48          	mov    %eax,0x48(%esp)
 80498a1:	b9 00 20 00 00       	mov    $0x2000,%ecx
 80498a6:	8d 94 24 4c 20 00 00 	lea    0x204c(%esp),%edx
 80498ad:	8d 44 24 40          	lea    0x40(%esp),%eax
 80498b1:	e8 32 fb ff ff       	call   80493e8 <rio_readlineb>
 80498b6:	85 c0                	test   %eax,%eax
 80498b8:	0f 8e d6 00 00 00    	jle    8049994 <submitr+0x4fb>
 80498be:	83 ec 0c             	sub    $0xc,%esp
 80498c1:	8d 84 24 58 80 00 00 	lea    0x8058(%esp),%eax
 80498c8:	50                   	push   %eax
 80498c9:	8d 44 24 3c          	lea    0x3c(%esp),%eax
 80498cd:	50                   	push   %eax
 80498ce:	8d 84 24 60 60 00 00 	lea    0x6060(%esp),%eax
 80498d5:	50                   	push   %eax
 80498d6:	68 9b a4 04 08       	push   $0x804a49b
 80498db:	8d 84 24 68 20 00 00 	lea    0x2068(%esp),%eax
 80498e2:	50                   	push   %eax
 80498e3:	e8 28 ef ff ff       	call   8048810 <__isoc99_sscanf@plt>
 80498e8:	8b 44 24 4c          	mov    0x4c(%esp),%eax
 80498ec:	83 c4 20             	add    $0x20,%esp
 80498ef:	3d c8 00 00 00       	cmp    $0xc8,%eax
 80498f4:	0f 84 a6 01 00 00    	je     8049aa0 <submitr+0x607>
 80498fa:	83 ec 08             	sub    $0x8,%esp
 80498fd:	8d 94 24 54 80 00 00 	lea    0x8054(%esp),%edx
 8049904:	52                   	push   %edx
 8049905:	50                   	push   %eax
 8049906:	68 ac a3 04 08       	push   $0x804a3ac
 804990b:	6a ff                	push   $0xffffffff
 804990d:	6a 01                	push   $0x1
 804990f:	ff 74 24 30          	push   0x30(%esp)
 8049913:	e8 a8 ef ff ff       	call   80488c0 <__sprintf_chk@plt>
 8049918:	83 c4 14             	add    $0x14,%esp
 804991b:	55                   	push   %ebp
 804991c:	e8 7f ef ff ff       	call   80488a0 <close@plt>
 8049921:	83 c4 10             	add    $0x10,%esp
 8049924:	b8 ff ff ff ff       	mov    $0xffffffff,%eax
 8049929:	e9 02 02 00 00       	jmp    8049b30 <submitr+0x697>
 804992e:	8b 44 24 14          	mov    0x14(%esp),%eax
 8049932:	c7 00 45 72 72 6f    	movl   $0x6f727245,(%eax)
 8049938:	c7 40 04 72 3a 20 43 	movl   $0x43203a72,0x4(%eax)
 804993f:	c7 40 08 6c 69 65 6e 	movl   $0x6e65696c,0x8(%eax)
 8049946:	c7 40 0c 74 20 75 6e 	movl   $0x6e752074,0xc(%eax)
 804994d:	c7 40 10 61 62 6c 65 	movl   $0x656c6261,0x10(%eax)
 8049954:	c7 40 14 20 74 6f 20 	movl   $0x206f7420,0x14(%eax)
 804995b:	c7 40 18 77 72 69 74 	movl   $0x74697277,0x18(%eax)
 8049962:	c7 40 1c 65 20 74 6f 	movl   $0x6f742065,0x1c(%eax)
 8049969:	c7 40 20 20 74 68 65 	movl   $0x65687420,0x20(%eax)
 8049970:	c7 40 24 20 73 65 72 	movl   $0x72657320,0x24(%eax)
 8049977:	c7 40 28 76 65 72 00 	movl   $0x726576,0x28(%eax)
 804997e:	83 ec 0c             	sub    $0xc,%esp
 8049981:	55                   	push   %ebp
 8049982:	e8 19 ef ff ff       	call   80488a0 <close@plt>
 8049987:	83 c4 10             	add    $0x10,%esp
 804998a:	b8 ff ff ff ff       	mov    $0xffffffff,%eax
 804998f:	e9 9c 01 00 00       	jmp    8049b30 <submitr+0x697>
 8049994:	8b 44 24 14          	mov    0x14(%esp),%eax
 8049998:	c7 00 45 72 72 6f    	movl   $0x6f727245,(%eax)
 804999e:	c7 40 04 72 3a 20 43 	movl   $0x43203a72,0x4(%eax)
 80499a5:	c7 40 08 6c 69 65 6e 	movl   $0x6e65696c,0x8(%eax)
 80499ac:	c7 40 0c 74 20 75 6e 	movl   $0x6e752074,0xc(%eax)
 80499b3:	c7 40 10 61 62 6c 65 	movl   $0x656c6261,0x10(%eax)
 80499ba:	c7 40 14 20 74 6f 20 	movl   $0x206f7420,0x14(%eax)
 80499c1:	c7 40 18 72 65 61 64 	movl   $0x64616572,0x18(%eax)
 80499c8:	c7 40 1c 20 66 69 72 	movl   $0x72696620,0x1c(%eax)
 80499cf:	c7 40 20 73 74 20 68 	movl   $0x68207473,0x20(%eax)
 80499d6:	c7 40 24 65 61 64 65 	movl   $0x65646165,0x24(%eax)
 80499dd:	c7 40 28 72 20 66 72 	movl   $0x72662072,0x28(%eax)
 80499e4:	c7 40 2c 6f 6d 20 73 	movl   $0x73206d6f,0x2c(%eax)
 80499eb:	c7 40 30 65 72 76 65 	movl   $0x65767265,0x30(%eax)
 80499f2:	66 c7 40 34 72 00    	movw   $0x72,0x34(%eax)
 80499f8:	83 ec 0c             	sub    $0xc,%esp
 80499fb:	55                   	push   %ebp
 80499fc:	e8 9f ee ff ff       	call   80488a0 <close@plt>
 8049a01:	83 c4 10             	add    $0x10,%esp
 8049a04:	b8 ff ff ff ff       	mov    $0xffffffff,%eax
 8049a09:	e9 22 01 00 00       	jmp    8049b30 <submitr+0x697>
 8049a0e:	8b 44 24 14          	mov    0x14(%esp),%eax
 8049a12:	c7 00 45 72 72 6f    	movl   $0x6f727245,(%eax)
 8049a18:	c7 40 04 72 3a 20 43 	movl   $0x43203a72,0x4(%eax)
 8049a1f:	c7 40 08 6c 69 65 6e 	movl   $0x6e65696c,0x8(%eax)
 8049a26:	c7 40 0c 74 20 75 6e 	movl   $0x6e752074,0xc(%eax)
 8049a2d:	c7 40 10 61 62 6c 65 	movl   $0x656c6261,0x10(%eax)
 8049a34:	c7 40 14 20 74 6f 20 	movl   $0x206f7420,0x14(%eax)
 8049a3b:	c7 40 18 72 65 61 64 	movl   $0x64616572,0x18(%eax)
 8049a42:	c7 40 1c 20 68 65 61 	movl   $0x61656820,0x1c(%eax)
 8049a49:	c7 40 20 64 65 72 73 	movl   $0x73726564,0x20(%eax)
 8049a50:	c7 40 24 20 66 72 6f 	movl   $0x6f726620,0x24(%eax)
 8049a57:	c7 40 28 6d 20 73 65 	movl   $0x6573206d,0x28(%eax)
 8049a5e:	c7 40 2c 72 76 65 72 	movl   $0x72657672,0x2c(%eax)
 8049a65:	c6 40 30 00          	movb   $0x0,0x30(%eax)
 8049a69:	83 ec 0c             	sub    $0xc,%esp
 8049a6c:	55                   	push   %ebp
 8049a6d:	e8 2e ee ff ff       	call   80488a0 <close@plt>
 8049a72:	83 c4 10             	add    $0x10,%esp
 8049a75:	b8 ff ff ff ff       	mov    $0xffffffff,%eax
 8049a7a:	e9 b1 00 00 00       	jmp    8049b30 <submitr+0x697>
 8049a7f:	85 c0                	test   %eax,%eax
 8049a81:	74 4b                	je     8049ace <submitr+0x635>
 8049a83:	b9 00 20 00 00       	mov    $0x2000,%ecx
 8049a88:	8d 94 24 4c 20 00 00 	lea    0x204c(%esp),%edx
 8049a8f:	8d 44 24 40          	lea    0x40(%esp),%eax
 8049a93:	e8 50 f9 ff ff       	call   80493e8 <rio_readlineb>
 8049a98:	85 c0                	test   %eax,%eax
 8049a9a:	0f 8e 6e ff ff ff    	jle    8049a0e <submitr+0x575>
 8049aa0:	0f b6 94 24 4c 20 00 	movzbl 0x204c(%esp),%edx
 8049aa7:	00 
 8049aa8:	b8 0d 00 00 00       	mov    $0xd,%eax
 8049aad:	29 d0                	sub    %edx,%eax
 8049aaf:	75 ce                	jne    8049a7f <submitr+0x5e6>
 8049ab1:	0f b6 94 24 4d 20 00 	movzbl 0x204d(%esp),%edx
 8049ab8:	00 
 8049ab9:	b8 0a 00 00 00       	mov    $0xa,%eax
 8049abe:	29 d0                	sub    %edx,%eax
 8049ac0:	75 bd                	jne    8049a7f <submitr+0x5e6>
 8049ac2:	0f b6 84 24 4e 20 00 	movzbl 0x204e(%esp),%eax
 8049ac9:	00 
 8049aca:	f7 d8                	neg    %eax
 8049acc:	eb b1                	jmp    8049a7f <submitr+0x5e6>
 8049ace:	b9 00 20 00 00       	mov    $0x2000,%ecx
 8049ad3:	8d 94 24 4c 20 00 00 	lea    0x204c(%esp),%edx
 8049ada:	8d 44 24 40          	lea    0x40(%esp),%eax
 8049ade:	e8 05 f9 ff ff       	call   80493e8 <rio_readlineb>
 8049ae3:	85 c0                	test   %eax,%eax
 8049ae5:	7e 68                	jle    8049b4f <submitr+0x6b6>
 8049ae7:	83 ec 08             	sub    $0x8,%esp
 8049aea:	8d 84 24 54 20 00 00 	lea    0x2054(%esp),%eax
 8049af1:	50                   	push   %eax
 8049af2:	8b 7c 24 20          	mov    0x20(%esp),%edi
 8049af6:	57                   	push   %edi
 8049af7:	e8 a4 ec ff ff       	call   80487a0 <strcpy@plt>
 8049afc:	89 2c 24             	mov    %ebp,(%esp)
 8049aff:	e8 9c ed ff ff       	call   80488a0 <close@plt>
 8049b04:	0f b6 17             	movzbl (%edi),%edx
 8049b07:	b8 4f 00 00 00       	mov    $0x4f,%eax
 8049b0c:	83 c4 10             	add    $0x10,%esp
 8049b0f:	29 d0                	sub    %edx,%eax
 8049b11:	75 13                	jne    8049b26 <submitr+0x68d>
 8049b13:	0f b6 57 01          	movzbl 0x1(%edi),%edx
 8049b17:	b8 4b 00 00 00       	mov    $0x4b,%eax
 8049b1c:	29 d0                	sub    %edx,%eax
 8049b1e:	75 06                	jne    8049b26 <submitr+0x68d>
 8049b20:	0f b6 47 02          	movzbl 0x2(%edi),%eax
 8049b24:	f7 d8                	neg    %eax
 8049b26:	85 c0                	test   %eax,%eax
 8049b28:	0f 95 c0             	setne  %al
 8049b2b:	0f b6 c0             	movzbl %al,%eax
 8049b2e:	f7 d8                	neg    %eax
 8049b30:	8b bc 24 4c a0 00 00 	mov    0xa04c(%esp),%edi
 8049b37:	65 33 3d 14 00 00 00 	xor    %gs:0x14,%edi
 8049b3e:	0f 85 2a 01 00 00    	jne    8049c6e <submitr+0x7d5>
 8049b44:	81 c4 5c a0 00 00    	add    $0xa05c,%esp
 8049b4a:	5b                   	pop    %ebx
 8049b4b:	5e                   	pop    %esi
 8049b4c:	5f                   	pop    %edi
 8049b4d:	5d                   	pop    %ebp
 8049b4e:	c3                   	ret    
 8049b4f:	8b 44 24 14          	mov    0x14(%esp),%eax
 8049b53:	c7 00 45 72 72 6f    	movl   $0x6f727245,(%eax)
 8049b59:	c7 40 04 72 3a 20 43 	movl   $0x43203a72,0x4(%eax)
 8049b60:	c7 40 08 6c 69 65 6e 	movl   $0x6e65696c,0x8(%eax)
 8049b67:	c7 40 0c 74 20 75 6e 	movl   $0x6e752074,0xc(%eax)
 8049b6e:	c7 40 10 61 62 6c 65 	movl   $0x656c6261,0x10(%eax)
 8049b75:	c7 40 14 20 74 6f 20 	movl   $0x206f7420,0x14(%eax)
 8049b7c:	c7 40 18 72 65 61 64 	movl   $0x64616572,0x18(%eax)
 8049b83:	c7 40 1c 20 73 74 61 	movl   $0x61747320,0x1c(%eax)
 8049b8a:	c7 40 20 74 75 73 20 	movl   $0x20737574,0x20(%eax)
 8049b91:	c7 40 24 6d 65 73 73 	movl   $0x7373656d,0x24(%eax)
 8049b98:	c7 40 28 61 67 65 20 	movl   $0x20656761,0x28(%eax)
 8049b9f:	c7 40 2c 66 72 6f 6d 	movl   $0x6d6f7266,0x2c(%eax)
 8049ba6:	c7 40 30 20 73 65 72 	movl   $0x72657320,0x30(%eax)
 8049bad:	c7 40 34 76 65 72 00 	movl   $0x726576,0x34(%eax)
 8049bb4:	83 ec 0c             	sub    $0xc,%esp
 8049bb7:	55                   	push   %ebp
 8049bb8:	e8 e3 ec ff ff       	call   80488a0 <close@plt>
 8049bbd:	83 c4 10             	add    $0x10,%esp
 8049bc0:	b8 ff ff ff ff       	mov    $0xffffffff,%eax
 8049bc5:	e9 66 ff ff ff       	jmp    8049b30 <submitr+0x697>
 8049bca:	a1 dc a3 04 08       	mov    0x804a3dc,%eax
 8049bcf:	8b 5c 24 14          	mov    0x14(%esp),%ebx
 8049bd3:	89 03                	mov    %eax,(%ebx)
 8049bd5:	a1 1b a4 04 08       	mov    0x804a41b,%eax
 8049bda:	89 43 3f             	mov    %eax,0x3f(%ebx)
 8049bdd:	8d 7b 04             	lea    0x4(%ebx),%edi
 8049be0:	83 e7 fc             	and    $0xfffffffc,%edi
 8049be3:	29 fb                	sub    %edi,%ebx
 8049be5:	89 d8                	mov    %ebx,%eax
 8049be7:	be dc a3 04 08       	mov    $0x804a3dc,%esi
 8049bec:	29 de                	sub    %ebx,%esi
 8049bee:	83 c0 43             	add    $0x43,%eax
 8049bf1:	c1 e8 02             	shr    $0x2,%eax
 8049bf4:	89 c1                	mov    %eax,%ecx
 8049bf6:	f3 a5                	rep movsl %ds:(%esi),%es:(%edi)
 8049bf8:	83 ec 0c             	sub    $0xc,%esp
 8049bfb:	55                   	push   %ebp
 8049bfc:	e8 9f ec ff ff       	call   80488a0 <close@plt>
 8049c01:	83 c4 10             	add    $0x10,%esp
 8049c04:	b8 ff ff ff ff       	mov    $0xffffffff,%eax
 8049c09:	e9 22 ff ff ff       	jmp    8049b30 <submitr+0x697>
 8049c0e:	8d 84 24 4c 40 00 00 	lea    0x404c(%esp),%eax
 8049c15:	50                   	push   %eax
 8049c16:	ff 74 24 14          	push   0x14(%esp)
 8049c1a:	ff 74 24 14          	push   0x14(%esp)
 8049c1e:	ff 74 24 14          	push   0x14(%esp)
 8049c22:	68 20 a4 04 08       	push   $0x804a420
 8049c27:	68 00 20 00 00       	push   $0x2000
 8049c2c:	6a 01                	push   $0x1
 8049c2e:	8d bc 24 68 20 00 00 	lea    0x2068(%esp),%edi
 8049c35:	57                   	push   %edi
 8049c36:	e8 85 ec ff ff       	call   80488c0 <__sprintf_chk@plt>
 8049c3b:	b8 00 00 00 00       	mov    $0x0,%eax
 8049c40:	b9 ff ff ff ff       	mov    $0xffffffff,%ecx
 8049c45:	f2 ae                	repnz scas %es:(%edi),%al
 8049c47:	f7 d1                	not    %ecx
 8049c49:	8d 41 ff             	lea    -0x1(%ecx),%eax
 8049c4c:	89 44 24 28          	mov    %eax,0x28(%esp)
 8049c50:	83 c4 20             	add    $0x20,%esp
 8049c53:	89 c3                	mov    %eax,%ebx
 8049c55:	8d b4 24 4c 20 00 00 	lea    0x204c(%esp),%esi
 8049c5c:	bf 00 00 00 00       	mov    $0x0,%edi
 8049c61:	85 c0                	test   %eax,%eax
 8049c63:	0f 85 f5 fb ff ff    	jne    804985e <submitr+0x3c5>
 8049c69:	e9 1f fc ff ff       	jmp    804988d <submitr+0x3f4>
 8049c6e:	e8 1d eb ff ff       	call   8048790 <__stack_chk_fail@plt>

08049c73 <init_timeout>:
 8049c73:	53                   	push   %ebx
 8049c74:	83 ec 08             	sub    $0x8,%esp
 8049c77:	8b 5c 24 10          	mov    0x10(%esp),%ebx
 8049c7b:	85 db                	test   %ebx,%ebx
 8049c7d:	74 24                	je     8049ca3 <init_timeout+0x30>
 8049c7f:	83 ec 08             	sub    $0x8,%esp
 8049c82:	68 c5 93 04 08       	push   $0x80493c5
 8049c87:	6a 0e                	push   $0xe
 8049c89:	e8 d2 ea ff ff       	call   8048760 <signal@plt>
 8049c8e:	85 db                	test   %ebx,%ebx
 8049c90:	b8 00 00 00 00       	mov    $0x0,%eax
 8049c95:	0f 48 d8             	cmovs  %eax,%ebx
 8049c98:	89 1c 24             	mov    %ebx,(%esp)
 8049c9b:	e8 e0 ea ff ff       	call   8048780 <alarm@plt>
 8049ca0:	83 c4 10             	add    $0x10,%esp
 8049ca3:	83 c4 08             	add    $0x8,%esp
 8049ca6:	5b                   	pop    %ebx
 8049ca7:	c3                   	ret    

08049ca8 <init_driver>:
 8049ca8:	57                   	push   %edi
 8049ca9:	56                   	push   %esi
 8049caa:	53                   	push   %ebx
 8049cab:	83 ec 28             	sub    $0x28,%esp
 8049cae:	8b 74 24 38          	mov    0x38(%esp),%esi
 8049cb2:	65 a1 14 00 00 00    	mov    %gs:0x14,%eax
 8049cb8:	89 44 24 24          	mov    %eax,0x24(%esp)
 8049cbc:	31 c0                	xor    %eax,%eax
 8049cbe:	6a 01                	push   $0x1
 8049cc0:	6a 0d                	push   $0xd
 8049cc2:	e8 99 ea ff ff       	call   8048760 <signal@plt>
 8049cc7:	83 c4 08             	add    $0x8,%esp
 8049cca:	6a 01                	push   $0x1
 8049ccc:	6a 1d                	push   $0x1d
 8049cce:	e8 8d ea ff ff       	call   8048760 <signal@plt>
 8049cd3:	83 c4 08             	add    $0x8,%esp
 8049cd6:	6a 01                	push   $0x1
 8049cd8:	6a 1d                	push   $0x1d
 8049cda:	e8 81 ea ff ff       	call   8048760 <signal@plt>
 8049cdf:	83 c4 0c             	add    $0xc,%esp
 8049ce2:	6a 00                	push   $0x0
 8049ce4:	6a 01                	push   $0x1
 8049ce6:	6a 02                	push   $0x2
 8049ce8:	e8 63 eb ff ff       	call   8048850 <socket@plt>
 8049ced:	83 c4 10             	add    $0x10,%esp
 8049cf0:	85 c0                	test   %eax,%eax
 8049cf2:	0f 88 a9 00 00 00    	js     8049da1 <init_driver+0xf9>
 8049cf8:	89 c3                	mov    %eax,%ebx
 8049cfa:	83 ec 0c             	sub    $0xc,%esp
 8049cfd:	68 ac a4 04 08       	push   $0x804a4ac
 8049d02:	e8 69 eb ff ff       	call   8048870 <gethostbyname@plt>
 8049d07:	83 c4 10             	add    $0x10,%esp
 8049d0a:	85 c0                	test   %eax,%eax
 8049d0c:	0f 84 da 00 00 00    	je     8049dec <init_driver+0x144>
 8049d12:	8d 7c 24 0c          	lea    0xc(%esp),%edi
 8049d16:	c7 44 24 0c 00 00 00 	movl   $0x0,0xc(%esp)
 8049d1d:	00 
 8049d1e:	c7 44 24 10 00 00 00 	movl   $0x0,0x10(%esp)
 8049d25:	00 
 8049d26:	c7 44 24 14 00 00 00 	movl   $0x0,0x14(%esp)
 8049d2d:	00 
 8049d2e:	c7 44 24 18 00 00 00 	movl   $0x0,0x18(%esp)
 8049d35:	00 
 8049d36:	66 c7 44 24 0c 02 00 	movw   $0x2,0xc(%esp)
 8049d3d:	6a 0c                	push   $0xc
 8049d3f:	ff 70 0c             	push   0xc(%eax)
 8049d42:	8b 40 10             	mov    0x10(%eax),%eax
 8049d45:	ff 30                	push   (%eax)
 8049d47:	8d 44 24 1c          	lea    0x1c(%esp),%eax
 8049d4b:	50                   	push   %eax
 8049d4c:	e8 7f ea ff ff       	call   80487d0 <__memmove_chk@plt>
 8049d51:	66 c7 44 24 1e 3b 6e 	movw   $0x6e3b,0x1e(%esp)
 8049d58:	83 c4 0c             	add    $0xc,%esp
 8049d5b:	6a 10                	push   $0x10
 8049d5d:	57                   	push   %edi
 8049d5e:	53                   	push   %ebx
 8049d5f:	e8 2c eb ff ff       	call   8048890 <connect@plt>
 8049d64:	83 c4 10             	add    $0x10,%esp
 8049d67:	85 c0                	test   %eax,%eax
 8049d69:	0f 88 e9 00 00 00    	js     8049e58 <init_driver+0x1b0>
 8049d6f:	83 ec 0c             	sub    $0xc,%esp
 8049d72:	53                   	push   %ebx
 8049d73:	e8 28 eb ff ff       	call   80488a0 <close@plt>
 8049d78:	66 c7 06 4f 4b       	movw   $0x4b4f,(%esi)
 8049d7d:	c6 46 02 00          	movb   $0x0,0x2(%esi)
 8049d81:	83 c4 10             	add    $0x10,%esp
 8049d84:	b8 00 00 00 00       	mov    $0x0,%eax
 8049d89:	8b 54 24 1c          	mov    0x1c(%esp),%edx
 8049d8d:	65 33 15 14 00 00 00 	xor    %gs:0x14,%edx
 8049d94:	0f 85 eb 00 00 00    	jne    8049e85 <init_driver+0x1dd>
 8049d9a:	83 c4 20             	add    $0x20,%esp
 8049d9d:	5b                   	pop    %ebx
 8049d9e:	5e                   	pop    %esi
 8049d9f:	5f                   	pop    %edi
 8049da0:	c3                   	ret    
 8049da1:	c7 06 45 72 72 6f    	movl   $0x6f727245,(%esi)
 8049da7:	c7 46 04 72 3a 20 43 	movl   $0x43203a72,0x4(%esi)
 8049dae:	c7 46 08 6c 69 65 6e 	movl   $0x6e65696c,0x8(%esi)
 8049db5:	c7 46 0c 74 20 75 6e 	movl   $0x6e752074,0xc(%esi)
 8049dbc:	c7 46 10 61 62 6c 65 	movl   $0x656c6261,0x10(%esi)
 8049dc3:	c7 46 14 20 74 6f 20 	movl   $0x206f7420,0x14(%esi)
 8049dca:	c7 46 18 63 72 65 61 	movl   $0x61657263,0x18(%esi)
 8049dd1:	c7 46 1c 74 65 20 73 	movl   $0x73206574,0x1c(%esi)
 8049dd8:	c7 46 20 6f 63 6b 65 	movl   $0x656b636f,0x20(%esi)
 8049ddf:	66 c7 46 24 74 00    	movw   $0x74,0x24(%esi)
 8049de5:	b8 ff ff ff ff       	mov    $0xffffffff,%eax
 8049dea:	eb 9d                	jmp    8049d89 <init_driver+0xe1>
 8049dec:	c7 06 45 72 72 6f    	movl   $0x6f727245,(%esi)
 8049df2:	c7 46 04 72 3a 20 44 	movl   $0x44203a72,0x4(%esi)
 8049df9:	c7 46 08 4e 53 20 69 	movl   $0x6920534e,0x8(%esi)
 8049e00:	c7 46 0c 73 20 75 6e 	movl   $0x6e752073,0xc(%esi)
 8049e07:	c7 46 10 61 62 6c 65 	movl   $0x656c6261,0x10(%esi)
 8049e0e:	c7 46 14 20 74 6f 20 	movl   $0x206f7420,0x14(%esi)
 8049e15:	c7 46 18 72 65 73 6f 	movl   $0x6f736572,0x18(%esi)
 8049e1c:	c7 46 1c 6c 76 65 20 	movl   $0x2065766c,0x1c(%esi)
 8049e23:	c7 46 20 73 65 72 76 	movl   $0x76726573,0x20(%esi)
 8049e2a:	c7 46 24 65 72 20 61 	movl   $0x61207265,0x24(%esi)
 8049e31:	c7 46 28 64 64 72 65 	movl   $0x65726464,0x28(%esi)
 8049e38:	66 c7 46 2c 73 73    	movw   $0x7373,0x2c(%esi)
 8049e3e:	c6 46 2e 00          	movb   $0x0,0x2e(%esi)
 8049e42:	83 ec 0c             	sub    $0xc,%esp
 8049e45:	53                   	push   %ebx
 8049e46:	e8 55 ea ff ff       	call   80488a0 <close@plt>
 8049e4b:	83 c4 10             	add    $0x10,%esp
 8049e4e:	b8 ff ff ff ff       	mov    $0xffffffff,%eax
 8049e53:	e9 31 ff ff ff       	jmp    8049d89 <init_driver+0xe1>
 8049e58:	83 ec 0c             	sub    $0xc,%esp
 8049e5b:	68 ac a4 04 08       	push   $0x804a4ac
 8049e60:	68 6c a4 04 08       	push   $0x804a46c
 8049e65:	6a ff                	push   $0xffffffff
 8049e67:	6a 01                	push   $0x1
 8049e69:	56                   	push   %esi
 8049e6a:	e8 51 ea ff ff       	call   80488c0 <__sprintf_chk@plt>
 8049e6f:	83 c4 14             	add    $0x14,%esp
 8049e72:	53                   	push   %ebx
 8049e73:	e8 28 ea ff ff       	call   80488a0 <close@plt>
 8049e78:	83 c4 10             	add    $0x10,%esp
 8049e7b:	b8 ff ff ff ff       	mov    $0xffffffff,%eax
 8049e80:	e9 04 ff ff ff       	jmp    8049d89 <init_driver+0xe1>
 8049e85:	e8 06 e9 ff ff       	call   8048790 <__stack_chk_fail@plt>

08049e8a <driver_post>:
 8049e8a:	53                   	push   %ebx
 8049e8b:	83 ec 08             	sub    $0x8,%esp
 8049e8e:	8b 54 24 10          	mov    0x10(%esp),%edx
 8049e92:	8b 44 24 18          	mov    0x18(%esp),%eax
 8049e96:	8b 5c 24 1c          	mov    0x1c(%esp),%ebx
 8049e9a:	85 c0                	test   %eax,%eax
 8049e9c:	75 17                	jne    8049eb5 <driver_post+0x2b>
 8049e9e:	85 d2                	test   %edx,%edx
 8049ea0:	74 05                	je     8049ea7 <driver_post+0x1d>
 8049ea2:	80 3a 00             	cmpb   $0x0,(%edx)
 8049ea5:	75 34                	jne    8049edb <driver_post+0x51>
 8049ea7:	66 c7 03 4f 4b       	movw   $0x4b4f,(%ebx)
 8049eac:	c6 43 02 00          	movb   $0x0,0x2(%ebx)
 8049eb0:	83 c4 08             	add    $0x8,%esp
 8049eb3:	5b                   	pop    %ebx
 8049eb4:	c3                   	ret    
 8049eb5:	83 ec 04             	sub    $0x4,%esp
 8049eb8:	ff 74 24 18          	push   0x18(%esp)
 8049ebc:	68 ba a4 04 08       	push   $0x804a4ba
 8049ec1:	6a 01                	push   $0x1
 8049ec3:	e8 78 e9 ff ff       	call   8048840 <__printf_chk@plt>
 8049ec8:	66 c7 03 4f 4b       	movw   $0x4b4f,(%ebx)
 8049ecd:	c6 43 02 00          	movb   $0x0,0x2(%ebx)
 8049ed1:	83 c4 10             	add    $0x10,%esp
 8049ed4:	b8 00 00 00 00       	mov    $0x0,%eax
 8049ed9:	eb d5                	jmp    8049eb0 <driver_post+0x26>
 8049edb:	83 ec 04             	sub    $0x4,%esp
 8049ede:	53                   	push   %ebx
 8049edf:	ff 74 24 1c          	push   0x1c(%esp)
 8049ee3:	68 d1 a4 04 08       	push   $0x804a4d1
 8049ee8:	52                   	push   %edx
 8049ee9:	68 d9 a4 04 08       	push   $0x804a4d9
 8049eee:	68 6e 3b 00 00       	push   $0x3b6e
 8049ef3:	68 ac a4 04 08       	push   $0x804a4ac
 8049ef8:	e8 9c f5 ff ff       	call   8049499 <submitr>
 8049efd:	83 c4 20             	add    $0x20,%esp
 8049f00:	eb ae                	jmp    8049eb0 <driver_post+0x26>
 8049f02:	66 90                	xchg   %ax,%ax
 8049f04:	66 90                	xchg   %ax,%ax
 8049f06:	66 90                	xchg   %ax,%ax
 8049f08:	66 90                	xchg   %ax,%ax
 8049f0a:	66 90                	xchg   %ax,%ax
 8049f0c:	66 90                	xchg   %ax,%ax
 8049f0e:	66 90                	xchg   %ax,%ax

08049f10 <__libc_csu_init>:
 8049f10:	55                   	push   %ebp
 8049f11:	57                   	push   %edi
 8049f12:	56                   	push   %esi
 8049f13:	53                   	push   %ebx
 8049f14:	e8 f7 e9 ff ff       	call   8048910 <__x86.get_pc_thunk.bx>
 8049f19:	81 c3 e7 20 00 00    	add    $0x20e7,%ebx
 8049f1f:	83 ec 0c             	sub    $0xc,%esp
 8049f22:	8b 6c 24 20          	mov    0x20(%esp),%ebp
 8049f26:	8d b3 0c ff ff ff    	lea    -0xf4(%ebx),%esi
 8049f2c:	e8 c3 e7 ff ff       	call   80486f4 <_init>
 8049f31:	8d 83 08 ff ff ff    	lea    -0xf8(%ebx),%eax
 8049f37:	29 c6                	sub    %eax,%esi
 8049f39:	c1 fe 02             	sar    $0x2,%esi
 8049f3c:	85 f6                	test   %esi,%esi
 8049f3e:	74 25                	je     8049f65 <__libc_csu_init+0x55>
 8049f40:	31 ff                	xor    %edi,%edi
 8049f42:	8d b6 00 00 00 00    	lea    0x0(%esi),%esi
 8049f48:	83 ec 04             	sub    $0x4,%esp
 8049f4b:	ff 74 24 2c          	push   0x2c(%esp)
 8049f4f:	ff 74 24 2c          	push   0x2c(%esp)
 8049f53:	55                   	push   %ebp
 8049f54:	ff 94 bb 08 ff ff ff 	call   *-0xf8(%ebx,%edi,4)
 8049f5b:	83 c7 01             	add    $0x1,%edi
 8049f5e:	83 c4 10             	add    $0x10,%esp
 8049f61:	39 fe                	cmp    %edi,%esi
 8049f63:	75 e3                	jne    8049f48 <__libc_csu_init+0x38>
 8049f65:	83 c4 0c             	add    $0xc,%esp
 8049f68:	5b                   	pop    %ebx
 8049f69:	5e                   	pop    %esi
 8049f6a:	5f                   	pop    %edi
 8049f6b:	5d                   	pop    %ebp
 8049f6c:	c3                   	ret    
 8049f6d:	8d 76 00             	lea    0x0(%esi),%esi

08049f70 <__libc_csu_fini>:
 8049f70:	f3 c3                	repz ret 

Disassembly of section .fini:

08049f74 <_fini>:
 8049f74:	53                   	push   %ebx
 8049f75:	83 ec 08             	sub    $0x8,%esp
 8049f78:	e8 93 e9 ff ff       	call   8048910 <__x86.get_pc_thunk.bx>
 8049f7d:	81 c3 83 20 00 00    	add    $0x2083,%ebx
 8049f83:	83 c4 08             	add    $0x8,%esp
 8049f86:	5b                   	pop    %ebx
 8049f87:	c3                   	ret    
